
elsea.bin:     file format elf32-i386


Disassembly of section .text:

00100000 <mb2_header_start>:
  100000:	d6                   	(bad)
  100001:	50                   	push   %eax
  100002:	52                   	push   %edx
  100003:	e8 00 00 00 00       	call   100008 <mb2_header_start+0x8>
  100008:	30 00                	xor    %al,(%eax)
  10000a:	00 00                	add    %al,(%eax)
  10000c:	fa                   	cli
  10000d:	ae                   	scas   %es:(%edi),%al
  10000e:	ad                   	lods   %ds:(%esi),%eax
  10000f:	17                   	pop    %ss
  100010:	05 00 01 00 14       	add    $0x14000100,%eax
  100015:	00 00                	add    %al,(%eax)
  100017:	00 00                	add    %al,(%eax)
  100019:	04 00                	add    $0x0,%al
  10001b:	00 00                	add    %al,(%eax)
  10001d:	03 00                	add    (%eax),%eax
  10001f:	00 20                	add    %ah,(%eax)
	...
  100029:	00 00                	add    %al,(%eax)
  10002b:	00 08                	add    %cl,(%eax)
  10002d:	00 00                	add    %al,(%eax)
	...

00100030 <putentryat>:
  100030:	55                   	push   %ebp
  100031:	0f b6 c0             	movzbl %al,%eax
  100034:	57                   	push   %edi
  100035:	c1 e0 04             	shl    $0x4,%eax
  100038:	56                   	push   %esi
  100039:	89 ce                	mov    %ecx,%esi
  10003b:	89 d1                	mov    %edx,%ecx
  10003d:	83 e2 0f             	and    $0xf,%edx
  100040:	53                   	push   %ebx
  100041:	8d 98 60 10 11 00    	lea    0x111060(%eax),%ebx
  100047:	05 70 10 11 00       	add    $0x111070,%eax
  10004c:	c0 e9 04             	shr    $0x4,%cl
  10004f:	0f b6 c9             	movzbl %cl,%ecx
  100052:	83 ec 1c             	sub    $0x1c,%esp
  100055:	8b 2c 8d 20 10 11 00 	mov    0x111020(,%ecx,4),%ebp
  10005c:	8b 3c 95 20 10 11 00 	mov    0x111020(,%edx,4),%edi
  100063:	89 44 24 08          	mov    %eax,0x8(%esp)
  100067:	8b 44 24 30          	mov    0x30(%esp),%eax
  10006b:	c1 e0 04             	shl    $0x4,%eax
  10006e:	29 d8                	sub    %ebx,%eax
  100070:	89 44 24 0c          	mov    %eax,0xc(%esp)
  100074:	8d 04 f5 07 00 00 00 	lea    0x7(,%esi,8),%eax
  10007b:	89 de                	mov    %ebx,%esi
  10007d:	89 44 24 04          	mov    %eax,0x4(%esp)
  100081:	8d b4 26 00 00 00 00 	lea    0x0(%esi,%eiz,1),%esi
  100088:	8b 44 24 0c          	mov    0xc(%esp),%eax
  10008c:	bb 07 00 00 00       	mov    $0x7,%ebx
  100091:	01 f0                	add    %esi,%eax
  100093:	89 04 24             	mov    %eax,(%esp)
  100096:	2e 8d b4 26 00 00 00 	lea    %cs:0x0(%esi,%eiz,1),%esi
  10009d:	00 
  10009e:	66 90                	xchg   %ax,%ax
  1000a0:	0f b6 16             	movzbl (%esi),%edx
  1000a3:	0f a3 da             	bt     %ebx,%edx
  1000a6:	89 ea                	mov    %ebp,%edx
  1000a8:	0f 42 d7             	cmovb  %edi,%edx
  1000ab:	83 ec 04             	sub    $0x4,%esp
  1000ae:	52                   	push   %edx
  1000af:	ff 74 24 08          	push   0x8(%esp)
  1000b3:	8b 54 24 10          	mov    0x10(%esp),%edx
  1000b7:	29 da                	sub    %ebx,%edx
  1000b9:	83 eb 01             	sub    $0x1,%ebx
  1000bc:	52                   	push   %edx
  1000bd:	e8 2e 51 00 00       	call   1051f0 <vesa_putpixel>
  1000c2:	83 c4 10             	add    $0x10,%esp
  1000c5:	83 fb ff             	cmp    $0xffffffff,%ebx
  1000c8:	75 d6                	jne    1000a0 <putentryat+0x70>
  1000ca:	8b 44 24 08          	mov    0x8(%esp),%eax
  1000ce:	83 c6 01             	add    $0x1,%esi
  1000d1:	39 c6                	cmp    %eax,%esi
  1000d3:	75 b3                	jne    100088 <putentryat+0x58>
  1000d5:	83 c4 1c             	add    $0x1c,%esp
  1000d8:	5b                   	pop    %ebx
  1000d9:	5e                   	pop    %esi
  1000da:	5f                   	pop    %edi
  1000db:	5d                   	pop    %ebp
  1000dc:	c3                   	ret
  1000dd:	8d 76 00             	lea    0x0(%esi),%esi

001000e0 <terminal_cursor_show>:
  1000e0:	c3                   	ret
  1000e1:	2e 8d b4 26 00 00 00 	lea    %cs:0x0(%esi,%eiz,1),%esi
  1000e8:	00 
  1000e9:	8d b4 26 00 00 00 00 	lea    0x0(%esi,%eiz,1),%esi

001000f0 <terminal_setpos>:
  1000f0:	8b 44 24 04          	mov    0x4(%esp),%eax
  1000f4:	a3 0c f0 11 00       	mov    %eax,0x11f00c
  1000f9:	8b 44 24 08          	mov    0x8(%esp),%eax
  1000fd:	a3 08 f0 11 00       	mov    %eax,0x11f008
  100102:	c3                   	ret
  100103:	2e 8d b4 26 00 00 00 	lea    %cs:0x0(%esi,%eiz,1),%esi
  10010a:	00 
  10010b:	2e 8d 74 26 00       	lea    %cs:0x0(%esi,%eiz,1),%esi

00100110 <terminal_getpos>:
  100110:	8b 54 24 04          	mov    0x4(%esp),%edx
  100114:	8b 44 24 08          	mov    0x8(%esp),%eax
  100118:	85 d2                	test   %edx,%edx
  10011a:	74 08                	je     100124 <terminal_getpos+0x14>
  10011c:	8b 0d 0c f0 11 00    	mov    0x11f00c,%ecx
  100122:	89 0a                	mov    %ecx,(%edx)
  100124:	85 c0                	test   %eax,%eax
  100126:	74 08                	je     100130 <terminal_getpos+0x20>
  100128:	8b 15 08 f0 11 00    	mov    0x11f008,%edx
  10012e:	89 10                	mov    %edx,(%eax)
  100130:	c3                   	ret
  100131:	2e 8d b4 26 00 00 00 	lea    %cs:0x0(%esi,%eiz,1),%esi
  100138:	00 
  100139:	8d b4 26 00 00 00 00 	lea    0x0(%esi,%eiz,1),%esi

00100140 <terminal_initialize>:
  100140:	83 ec 18             	sub    $0x18,%esp
  100143:	c6 05 04 f0 11 00 07 	movb   $0x7,0x11f004
  10014a:	6a 00                	push   $0x0
  10014c:	c7 05 0c f0 11 00 00 	movl   $0x0,0x11f00c
  100153:	00 00 00 
  100156:	c7 05 08 f0 11 00 00 	movl   $0x0,0x11f008
  10015d:	00 00 00 
  100160:	e8 4b 55 00 00       	call   1056b0 <vesa_clear>
  100165:	c7 05 0c f0 11 00 00 	movl   $0x0,0x11f00c
  10016c:	00 00 00 
  10016f:	c7 05 08 f0 11 00 00 	movl   $0x0,0x11f008
  100176:	00 00 00 
  100179:	83 c4 1c             	add    $0x1c,%esp
  10017c:	c3                   	ret
  10017d:	8d 76 00             	lea    0x0(%esi),%esi

00100180 <terminal_clear>:
  100180:	83 ec 18             	sub    $0x18,%esp
  100183:	0f b6 05 04 f0 11 00 	movzbl 0x11f004,%eax
  10018a:	c0 e8 04             	shr    $0x4,%al
  10018d:	0f b6 c0             	movzbl %al,%eax
  100190:	ff 34 85 20 10 11 00 	push   0x111020(,%eax,4)
  100197:	e8 14 55 00 00       	call   1056b0 <vesa_clear>
  10019c:	c7 05 0c f0 11 00 00 	movl   $0x0,0x11f00c
  1001a3:	00 00 00 
  1001a6:	c7 05 08 f0 11 00 00 	movl   $0x0,0x11f008
  1001ad:	00 00 00 
  1001b0:	83 c4 1c             	add    $0x1c,%esp
  1001b3:	c3                   	ret
  1001b4:	2e 8d b4 26 00 00 00 	lea    %cs:0x0(%esi,%eiz,1),%esi
  1001bb:	00 
  1001bc:	8d 74 26 00          	lea    0x0(%esi,%eiz,1),%esi

001001c0 <terminal_setcolor>:
  1001c0:	8b 44 24 04          	mov    0x4(%esp),%eax
  1001c4:	a2 04 f0 11 00       	mov    %al,0x11f004
  1001c9:	c3                   	ret
  1001ca:	8d b6 00 00 00 00    	lea    0x0(%esi),%esi

001001d0 <terminal_putchar>:
  1001d0:	56                   	push   %esi
  1001d1:	ba f8 03 00 00       	mov    $0x3f8,%edx
  1001d6:	53                   	push   %ebx
  1001d7:	83 ec 04             	sub    $0x4,%esp
  1001da:	8b 44 24 10          	mov    0x10(%esp),%eax
  1001de:	ee                   	out    %al,(%dx)
  1001df:	8b 15 00 f0 11 00    	mov    0x11f000,%edx
  1001e5:	85 d2                	test   %edx,%edx
  1001e7:	74 0b                	je     1001f4 <terminal_putchar+0x24>
  1001e9:	8b 4a 54             	mov    0x54(%edx),%ecx
  1001ec:	85 c9                	test   %ecx,%ecx
  1001ee:	0f 85 1c 01 00 00    	jne    100310 <terminal_putchar+0x140>
  1001f4:	8b 15 4c 29 15 00    	mov    0x15294c,%edx
  1001fa:	8b 0d 48 29 15 00    	mov    0x152948,%ecx
  100200:	83 fa 07             	cmp    $0x7,%edx
  100203:	76 34                	jbe    100239 <terminal_putchar+0x69>
  100205:	89 d3                	mov    %edx,%ebx
  100207:	89 ce                	mov    %ecx,%esi
  100209:	c1 eb 03             	shr    $0x3,%ebx
  10020c:	c1 ee 04             	shr    $0x4,%esi
  10020f:	3c 0a                	cmp    $0xa,%al
  100211:	74 5a                	je     10026d <terminal_putchar+0x9d>
  100213:	0f 8f d7 00 00 00    	jg     1002f0 <terminal_putchar+0x120>
  100219:	3c 08                	cmp    $0x8,%al
  10021b:	0f 84 8f 00 00 00    	je     1002b0 <terminal_putchar+0xe0>
  100221:	3c 09                	cmp    $0x9,%al
  100223:	75 1b                	jne    100240 <terminal_putchar+0x70>
  100225:	a1 08 f0 11 00       	mov    0x11f008,%eax
  10022a:	83 c0 08             	add    $0x8,%eax
  10022d:	83 e0 f8             	and    $0xfffffff8,%eax
  100230:	39 d8                	cmp    %ebx,%eax
  100232:	73 39                	jae    10026d <terminal_putchar+0x9d>
  100234:	a3 08 f0 11 00       	mov    %eax,0x11f008
  100239:	83 c4 04             	add    $0x4,%esp
  10023c:	5b                   	pop    %ebx
  10023d:	5e                   	pop    %esi
  10023e:	c3                   	ret
  10023f:	90                   	nop
  100240:	83 ec 0c             	sub    $0xc,%esp
  100243:	ff 35 0c f0 11 00    	push   0x11f00c
  100249:	8b 0d 08 f0 11 00    	mov    0x11f008,%ecx
  10024f:	0f be c0             	movsbl %al,%eax
  100252:	0f b6 15 04 f0 11 00 	movzbl 0x11f004,%edx
  100259:	e8 d2 fd ff ff       	call   100030 <putentryat>
  10025e:	a1 08 f0 11 00       	mov    0x11f008,%eax
  100263:	83 c4 10             	add    $0x10,%esp
  100266:	83 c0 01             	add    $0x1,%eax
  100269:	39 d8                	cmp    %ebx,%eax
  10026b:	72 c7                	jb     100234 <terminal_putchar+0x64>
  10026d:	a1 0c f0 11 00       	mov    0x11f00c,%eax
  100272:	c7 05 08 f0 11 00 00 	movl   $0x0,0x11f008
  100279:	00 00 00 
  10027c:	83 c0 01             	add    $0x1,%eax
  10027f:	a3 0c f0 11 00       	mov    %eax,0x11f00c
  100284:	39 f0                	cmp    %esi,%eax
  100286:	72 b1                	jb     100239 <terminal_putchar+0x69>
  100288:	83 ec 0c             	sub    $0xc,%esp
  10028b:	6a 10                	push   $0x10
  10028d:	e8 fe 54 00 00       	call   105790 <vesa_scroll_by>
  100292:	a1 0c f0 11 00       	mov    0x11f00c,%eax
  100297:	83 c4 10             	add    $0x10,%esp
  10029a:	85 c0                	test   %eax,%eax
  10029c:	74 9b                	je     100239 <terminal_putchar+0x69>
  10029e:	83 e8 01             	sub    $0x1,%eax
  1002a1:	a3 0c f0 11 00       	mov    %eax,0x11f00c
  1002a6:	eb 91                	jmp    100239 <terminal_putchar+0x69>
  1002a8:	2e 8d b4 26 00 00 00 	lea    %cs:0x0(%esi,%eiz,1),%esi
  1002af:	00 
  1002b0:	8b 0d 08 f0 11 00    	mov    0x11f008,%ecx
  1002b6:	85 c9                	test   %ecx,%ecx
  1002b8:	0f 84 7b ff ff ff    	je     100239 <terminal_putchar+0x69>
  1002be:	a1 0c f0 11 00       	mov    0x11f00c,%eax
  1002c3:	83 e9 01             	sub    $0x1,%ecx
  1002c6:	0f b6 15 04 f0 11 00 	movzbl 0x11f004,%edx
  1002cd:	89 0d 08 f0 11 00    	mov    %ecx,0x11f008
  1002d3:	89 44 24 10          	mov    %eax,0x10(%esp)
  1002d7:	83 c4 04             	add    $0x4,%esp
  1002da:	b8 20 00 00 00       	mov    $0x20,%eax
  1002df:	5b                   	pop    %ebx
  1002e0:	5e                   	pop    %esi
  1002e1:	e9 4a fd ff ff       	jmp    100030 <putentryat>
  1002e6:	2e 8d b4 26 00 00 00 	lea    %cs:0x0(%esi,%eiz,1),%esi
  1002ed:	00 
  1002ee:	66 90                	xchg   %ax,%ax
  1002f0:	3c 0d                	cmp    $0xd,%al
  1002f2:	0f 85 48 ff ff ff    	jne    100240 <terminal_putchar+0x70>
  1002f8:	c7 05 08 f0 11 00 00 	movl   $0x0,0x11f008
  1002ff:	00 00 00 
  100302:	83 c4 04             	add    $0x4,%esp
  100305:	5b                   	pop    %ebx
  100306:	5e                   	pop    %esi
  100307:	c3                   	ret
  100308:	2e 8d b4 26 00 00 00 	lea    %cs:0x0(%esi,%eiz,1),%esi
  10030f:	00 
  100310:	83 ec 08             	sub    $0x8,%esp
  100313:	0f be c0             	movsbl %al,%eax
  100316:	50                   	push   %eax
  100317:	52                   	push   %edx
  100318:	e8 e3 74 00 00       	call   107800 <wm_putchar>
  10031d:	83 c4 10             	add    $0x10,%esp
  100320:	83 c4 04             	add    $0x4,%esp
  100323:	5b                   	pop    %ebx
  100324:	5e                   	pop    %esi
  100325:	c3                   	ret
  100326:	2e 8d b4 26 00 00 00 	lea    %cs:0x0(%esi,%eiz,1),%esi
  10032d:	00 
  10032e:	66 90                	xchg   %ax,%ax

00100330 <terminal_write>:
  100330:	56                   	push   %esi
  100331:	53                   	push   %ebx
  100332:	83 ec 04             	sub    $0x4,%esp
  100335:	8b 74 24 14          	mov    0x14(%esp),%esi
  100339:	85 f6                	test   %esi,%esi
  10033b:	74 21                	je     10035e <terminal_write+0x2e>
  10033d:	8b 5c 24 10          	mov    0x10(%esp),%ebx
  100341:	01 de                	add    %ebx,%esi
  100343:	2e 8d 74 26 00       	lea    %cs:0x0(%esi,%eiz,1),%esi
  100348:	0f be 03             	movsbl (%ebx),%eax
  10034b:	83 ec 0c             	sub    $0xc,%esp
  10034e:	83 c3 01             	add    $0x1,%ebx
  100351:	50                   	push   %eax
  100352:	e8 79 fe ff ff       	call   1001d0 <terminal_putchar>
  100357:	83 c4 10             	add    $0x10,%esp
  10035a:	39 f3                	cmp    %esi,%ebx
  10035c:	75 ea                	jne    100348 <terminal_write+0x18>
  10035e:	83 c4 04             	add    $0x4,%esp
  100361:	5b                   	pop    %ebx
  100362:	5e                   	pop    %esi
  100363:	c3                   	ret
  100364:	2e 8d b4 26 00 00 00 	lea    %cs:0x0(%esi,%eiz,1),%esi
  10036b:	00 
  10036c:	8d 74 26 00          	lea    0x0(%esi,%eiz,1),%esi

00100370 <terminal_writestring>:
  100370:	53                   	push   %ebx
  100371:	83 ec 08             	sub    $0x8,%esp
  100374:	8b 5c 24 10          	mov    0x10(%esp),%ebx
  100378:	0f be 03             	movsbl (%ebx),%eax
  10037b:	84 c0                	test   %al,%al
  10037d:	74 17                	je     100396 <terminal_writestring+0x26>
  10037f:	90                   	nop
  100380:	83 ec 0c             	sub    $0xc,%esp
  100383:	83 c3 01             	add    $0x1,%ebx
  100386:	50                   	push   %eax
  100387:	e8 44 fe ff ff       	call   1001d0 <terminal_putchar>
  10038c:	0f be 03             	movsbl (%ebx),%eax
  10038f:	83 c4 10             	add    $0x10,%esp
  100392:	84 c0                	test   %al,%al
  100394:	75 ea                	jne    100380 <terminal_writestring+0x10>
  100396:	83 c4 08             	add    $0x8,%esp
  100399:	5b                   	pop    %ebx
  10039a:	c3                   	ret
  10039b:	2e 8d 74 26 00       	lea    %cs:0x0(%esi,%eiz,1),%esi

001003a0 <boot_ok>:
  1003a0:	56                   	push   %esi
  1003a1:	89 c6                	mov    %eax,%esi
  1003a3:	53                   	push   %ebx
  1003a4:	89 d3                	mov    %edx,%ebx
  1003a6:	83 ec 10             	sub    $0x10,%esp
  1003a9:	68 e0 35 11 00       	push   $0x1135e0
  1003ae:	e8 bd ff ff ff       	call   100370 <terminal_writestring>
  1003b3:	c7 04 24 e4 35 11 00 	movl   $0x1135e4,(%esp)
  1003ba:	c6 05 04 f0 11 00 0a 	movb   $0xa,0x11f004
  1003c1:	e8 aa ff ff ff       	call   100370 <terminal_writestring>
  1003c6:	c7 04 24 d3 39 11 00 	movl   $0x1139d3,(%esp)
  1003cd:	c6 05 04 f0 11 00 07 	movb   $0x7,0x11f004
  1003d4:	e8 97 ff ff ff       	call   100370 <terminal_writestring>
  1003d9:	89 34 24             	mov    %esi,(%esp)
  1003dc:	c6 05 04 f0 11 00 0f 	movb   $0xf,0x11f004
  1003e3:	e8 88 ff ff ff       	call   100370 <terminal_writestring>
  1003e8:	c7 04 24 d3 39 11 00 	movl   $0x1139d3,(%esp)
  1003ef:	c6 05 04 f0 11 00 08 	movb   $0x8,0x11f004
  1003f6:	e8 75 ff ff ff       	call   100370 <terminal_writestring>
  1003fb:	89 1c 24             	mov    %ebx,(%esp)
  1003fe:	e8 6d ff ff ff       	call   100370 <terminal_writestring>
  100403:	c7 04 24 0a 00 00 00 	movl   $0xa,(%esp)
  10040a:	e8 c1 fd ff ff       	call   1001d0 <terminal_putchar>
  10040f:	c6 05 04 f0 11 00 07 	movb   $0x7,0x11f004
  100416:	83 c4 14             	add    $0x14,%esp
  100419:	5b                   	pop    %ebx
  10041a:	5e                   	pop    %esi
  10041b:	c3                   	ret
  10041c:	8d 74 26 00          	lea    0x0(%esi,%eiz,1),%esi

00100420 <hline.constprop.0>:
  100420:	56                   	push   %esi
  100421:	89 d6                	mov    %edx,%esi
  100423:	53                   	push   %ebx
  100424:	bb 4e 00 00 00       	mov    $0x4e,%ebx
  100429:	83 ec 10             	sub    $0x10,%esp
  10042c:	50                   	push   %eax
  10042d:	e8 3e ff ff ff       	call   100370 <terminal_writestring>
  100432:	83 c4 10             	add    $0x10,%esp
  100435:	8d 76 00             	lea    0x0(%esi),%esi
  100438:	83 ec 0c             	sub    $0xc,%esp
  10043b:	6a cd                	push   $0xffffffcd
  10043d:	e8 8e fd ff ff       	call   1001d0 <terminal_putchar>
  100442:	83 c4 10             	add    $0x10,%esp
  100445:	83 eb 01             	sub    $0x1,%ebx
  100448:	75 ee                	jne    100438 <hline.constprop.0+0x18>
  10044a:	83 ec 0c             	sub    $0xc,%esp
  10044d:	56                   	push   %esi
  10044e:	e8 1d ff ff ff       	call   100370 <terminal_writestring>
  100453:	c7 04 24 0a 00 00 00 	movl   $0xa,(%esp)
  10045a:	e8 71 fd ff ff       	call   1001d0 <terminal_putchar>
  10045f:	83 c4 14             	add    $0x14,%esp
  100462:	5b                   	pop    %ebx
  100463:	5e                   	pop    %esi
  100464:	c3                   	ret
  100465:	2e 8d b4 26 00 00 00 	lea    %cs:0x0(%esi,%eiz,1),%esi
  10046c:	00 
  10046d:	8d 76 00             	lea    0x0(%esi),%esi

00100470 <boot_section>:
  100470:	53                   	push   %ebx
  100471:	ba eb 35 11 00       	mov    $0x1135eb,%edx
  100476:	89 c3                	mov    %eax,%ebx
  100478:	b8 ed 35 11 00       	mov    $0x1135ed,%eax
  10047d:	83 ec 08             	sub    $0x8,%esp
  100480:	c6 05 04 f0 11 00 0b 	movb   $0xb,0x11f004
  100487:	e8 94 ff ff ff       	call   100420 <hline.constprop.0>
  10048c:	83 ec 0c             	sub    $0xc,%esp
  10048f:	68 e0 35 11 00       	push   $0x1135e0
  100494:	e8 d7 fe ff ff       	call   100370 <terminal_writestring>
  100499:	89 1c 24             	mov    %ebx,(%esp)
  10049c:	c6 05 04 f0 11 00 0e 	movb   $0xe,0x11f004
  1004a3:	e8 c8 fe ff ff       	call   100370 <terminal_writestring>
  1004a8:	c7 04 24 0a 00 00 00 	movl   $0xa,(%esp)
  1004af:	e8 1c fd ff ff       	call   1001d0 <terminal_putchar>
  1004b4:	c6 05 04 f0 11 00 07 	movb   $0x7,0x11f004
  1004bb:	83 c4 18             	add    $0x18,%esp
  1004be:	5b                   	pop    %ebx
  1004bf:	c3                   	ret

001004c0 <terminal_writehex>:
  1004c0:	56                   	push   %esi
  1004c1:	b8 30 00 00 00       	mov    $0x30,%eax
  1004c6:	53                   	push   %ebx
  1004c7:	bb ef 35 11 00       	mov    $0x1135ef,%ebx
  1004cc:	83 ec 04             	sub    $0x4,%esp
  1004cf:	8b 74 24 10          	mov    0x10(%esp),%esi
  1004d3:	2e 8d 74 26 00       	lea    %cs:0x0(%esi,%eiz,1),%esi
  1004d8:	83 ec 0c             	sub    $0xc,%esp
  1004db:	83 c3 01             	add    $0x1,%ebx
  1004de:	50                   	push   %eax
  1004df:	e8 ec fc ff ff       	call   1001d0 <terminal_putchar>
  1004e4:	0f be 03             	movsbl (%ebx),%eax
  1004e7:	83 c4 10             	add    $0x10,%esp
  1004ea:	84 c0                	test   %al,%al
  1004ec:	75 ea                	jne    1004d8 <terminal_writehex+0x18>
  1004ee:	bb 1c 00 00 00       	mov    $0x1c,%ebx
  1004f3:	2e 8d 74 26 00       	lea    %cs:0x0(%esi,%eiz,1),%esi
  1004f8:	89 d9                	mov    %ebx,%ecx
  1004fa:	89 f0                	mov    %esi,%eax
  1004fc:	83 ec 0c             	sub    $0xc,%esp
  1004ff:	83 eb 04             	sub    $0x4,%ebx
  100502:	d3 e8                	shr    %cl,%eax
  100504:	83 e0 0f             	and    $0xf,%eax
  100507:	0f be 80 00 10 11 00 	movsbl 0x111000(%eax),%eax
  10050e:	50                   	push   %eax
  10050f:	e8 bc fc ff ff       	call   1001d0 <terminal_putchar>
  100514:	83 c4 10             	add    $0x10,%esp
  100517:	83 fb fc             	cmp    $0xfffffffc,%ebx
  10051a:	75 dc                	jne    1004f8 <terminal_writehex+0x38>
  10051c:	83 c4 04             	add    $0x4,%esp
  10051f:	5b                   	pop    %ebx
  100520:	5e                   	pop    %esi
  100521:	c3                   	ret
  100522:	2e 8d b4 26 00 00 00 	lea    %cs:0x0(%esi,%eiz,1),%esi
  100529:	00 
  10052a:	8d b6 00 00 00 00    	lea    0x0(%esi),%esi

00100530 <terminal_writedec>:
  100530:	55                   	push   %ebp
  100531:	57                   	push   %edi
  100532:	56                   	push   %esi
  100533:	31 f6                	xor    %esi,%esi
  100535:	53                   	push   %ebx
  100536:	83 ec 1c             	sub    $0x1c,%esp
  100539:	8b 7c 24 30          	mov    0x30(%esp),%edi
  10053d:	8d 5c 24 06          	lea    0x6(%esp),%ebx
  100541:	85 ff                	test   %edi,%edi
  100543:	74 5b                	je     1005a0 <terminal_writedec+0x70>
  100545:	8d 76 00             	lea    0x0(%esi),%esi
  100548:	b8 cd cc cc cc       	mov    $0xcccccccd,%eax
  10054d:	89 f1                	mov    %esi,%ecx
  10054f:	83 c6 01             	add    $0x1,%esi
  100552:	f7 e7                	mul    %edi
  100554:	89 f8                	mov    %edi,%eax
  100556:	c1 ea 03             	shr    $0x3,%edx
  100559:	8d 2c 92             	lea    (%edx,%edx,4),%ebp
  10055c:	01 ed                	add    %ebp,%ebp
  10055e:	29 e8                	sub    %ebp,%eax
  100560:	83 c0 30             	add    $0x30,%eax
  100563:	88 44 34 05          	mov    %al,0x5(%esp,%esi,1)
  100567:	89 f8                	mov    %edi,%eax
  100569:	89 d7                	mov    %edx,%edi
  10056b:	83 f8 09             	cmp    $0x9,%eax
  10056e:	77 d8                	ja     100548 <terminal_writedec+0x18>
  100570:	8d 34 0b             	lea    (%ebx,%ecx,1),%esi
  100573:	2e 8d 74 26 00       	lea    %cs:0x0(%esi,%eiz,1),%esi
  100578:	0f be 06             	movsbl (%esi),%eax
  10057b:	83 ec 0c             	sub    $0xc,%esp
  10057e:	50                   	push   %eax
  10057f:	e8 4c fc ff ff       	call   1001d0 <terminal_putchar>
  100584:	89 f0                	mov    %esi,%eax
  100586:	83 c4 10             	add    $0x10,%esp
  100589:	83 ee 01             	sub    $0x1,%esi
  10058c:	39 c3                	cmp    %eax,%ebx
  10058e:	75 e8                	jne    100578 <terminal_writedec+0x48>
  100590:	83 c4 1c             	add    $0x1c,%esp
  100593:	5b                   	pop    %ebx
  100594:	5e                   	pop    %esi
  100595:	5f                   	pop    %edi
  100596:	5d                   	pop    %ebp
  100597:	c3                   	ret
  100598:	2e 8d b4 26 00 00 00 	lea    %cs:0x0(%esi,%eiz,1),%esi
  10059f:	00 
  1005a0:	c7 44 24 30 30 00 00 	movl   $0x30,0x30(%esp)
  1005a7:	00 
  1005a8:	83 c4 1c             	add    $0x1c,%esp
  1005ab:	5b                   	pop    %ebx
  1005ac:	5e                   	pop    %esi
  1005ad:	5f                   	pop    %edi
  1005ae:	5d                   	pop    %ebp
  1005af:	e9 1c fc ff ff       	jmp    1001d0 <terminal_putchar>
  1005b4:	2e 8d b4 26 00 00 00 	lea    %cs:0x0(%esi,%eiz,1),%esi
  1005bb:	00 
  1005bc:	8d 74 26 00          	lea    0x0(%esi,%eiz,1),%esi

001005c0 <terminal_vprintf>:
  1005c0:	53                   	push   %ebx
  1005c1:	81 ec 08 02 00 00    	sub    $0x208,%esp
  1005c7:	ff b4 24 14 02 00 00 	push   0x214(%esp)
  1005ce:	ff b4 24 14 02 00 00 	push   0x214(%esp)
  1005d5:	68 00 02 00 00       	push   $0x200
  1005da:	8d 5c 24 0c          	lea    0xc(%esp),%ebx
  1005de:	53                   	push   %ebx
  1005df:	e8 0c 18 00 00       	call   101df0 <vsnprintf>
  1005e4:	0f be 44 24 10       	movsbl 0x10(%esp),%eax
  1005e9:	89 dc                	mov    %ebx,%esp
  1005eb:	84 c0                	test   %al,%al
  1005ed:	74 17                	je     100606 <terminal_vprintf+0x46>
  1005ef:	90                   	nop
  1005f0:	83 ec 0c             	sub    $0xc,%esp
  1005f3:	83 c3 01             	add    $0x1,%ebx
  1005f6:	50                   	push   %eax
  1005f7:	e8 d4 fb ff ff       	call   1001d0 <terminal_putchar>
  1005fc:	0f be 03             	movsbl (%ebx),%eax
  1005ff:	83 c4 10             	add    $0x10,%esp
  100602:	84 c0                	test   %al,%al
  100604:	75 ea                	jne    1005f0 <terminal_vprintf+0x30>
  100606:	81 c4 08 02 00 00    	add    $0x208,%esp
  10060c:	5b                   	pop    %ebx
  10060d:	c3                   	ret
  10060e:	66 90                	xchg   %ax,%ax

00100610 <terminal_printf>:
  100610:	83 ec 0c             	sub    $0xc,%esp
  100613:	8d 44 24 14          	lea    0x14(%esp),%eax
  100617:	83 ec 08             	sub    $0x8,%esp
  10061a:	50                   	push   %eax
  10061b:	ff 74 24 1c          	push   0x1c(%esp)
  10061f:	e8 9c ff ff ff       	call   1005c0 <terminal_vprintf>
  100624:	83 c4 1c             	add    $0x1c,%esp
  100627:	c3                   	ret
  100628:	2e 8d b4 26 00 00 00 	lea    %cs:0x0(%esi,%eiz,1),%esi
  10062f:	00 

00100630 <kernel_main>:
  100630:	55                   	push   %ebp
  100631:	57                   	push   %edi
  100632:	56                   	push   %esi
  100633:	53                   	push   %ebx
  100634:	83 ec 7c             	sub    $0x7c,%esp
  100637:	81 bc 24 90 00 00 00 	cmpl   $0x36d76289,0x90(%esp)
  10063e:	89 62 d7 36 
  100642:	74 08                	je     10064c <kernel_main+0x1c>
  100644:	8d 74 26 00          	lea    0x0(%esi,%eiz,1),%esi
  100648:	fa                   	cli
  100649:	f4                   	hlt
  10064a:	eb fc                	jmp    100648 <kernel_main+0x18>
  10064c:	31 f6                	xor    %esi,%esi
  10064e:	bf f9 03 00 00       	mov    $0x3f9,%edi
  100653:	89 f0                	mov    %esi,%eax
  100655:	89 fa                	mov    %edi,%edx
  100657:	ee                   	out    %al,(%dx)
  100658:	bb fb 03 00 00       	mov    $0x3fb,%ebx
  10065d:	b8 80 ff ff ff       	mov    $0xffffff80,%eax
  100662:	89 da                	mov    %ebx,%edx
  100664:	ee                   	out    %al,(%dx)
  100665:	b9 03 00 00 00       	mov    $0x3,%ecx
  10066a:	ba f8 03 00 00       	mov    $0x3f8,%edx
  10066f:	89 c8                	mov    %ecx,%eax
  100671:	ee                   	out    %al,(%dx)
  100672:	89 f0                	mov    %esi,%eax
  100674:	89 fa                	mov    %edi,%edx
  100676:	ee                   	out    %al,(%dx)
  100677:	89 c8                	mov    %ecx,%eax
  100679:	89 da                	mov    %ebx,%edx
  10067b:	ee                   	out    %al,(%dx)
  10067c:	b8 c7 ff ff ff       	mov    $0xffffffc7,%eax
  100681:	ba fa 03 00 00       	mov    $0x3fa,%edx
  100686:	ee                   	out    %al,(%dx)
  100687:	b8 0b 00 00 00       	mov    $0xb,%eax
  10068c:	ba fc 03 00 00       	mov    $0x3fc,%edx
  100691:	ee                   	out    %al,(%dx)
  100692:	be f3 35 11 00       	mov    $0x1135f3,%esi
  100697:	bb 0d 00 00 00       	mov    $0xd,%ebx
  10069c:	b9 fd 03 00 00       	mov    $0x3fd,%ecx
  1006a1:	bf f8 03 00 00       	mov    $0x3f8,%edi
  1006a6:	2e 8d b4 26 00 00 00 	lea    %cs:0x0(%esi,%eiz,1),%esi
  1006ad:	00 
  1006ae:	66 90                	xchg   %ax,%ax
  1006b0:	89 ca                	mov    %ecx,%edx
  1006b2:	ec                   	in     (%dx),%al
  1006b3:	a8 20                	test   $0x20,%al
  1006b5:	74 f9                	je     1006b0 <kernel_main+0x80>
  1006b7:	89 d8                	mov    %ebx,%eax
  1006b9:	89 fa                	mov    %edi,%edx
  1006bb:	ee                   	out    %al,(%dx)
  1006bc:	0f b6 1e             	movzbl (%esi),%ebx
  1006bf:	83 c6 01             	add    $0x1,%esi
  1006c2:	84 db                	test   %bl,%bl
  1006c4:	75 ea                	jne    1006b0 <kernel_main+0x80>
  1006c6:	8b bc 24 94 00 00 00 	mov    0x94(%esp),%edi
  1006cd:	8b 84 24 94 00 00 00 	mov    0x94(%esp),%eax
  1006d4:	31 f6                	xor    %esi,%esi
  1006d6:	89 34 24             	mov    %esi,(%esp)
  1006d9:	8b 5f 08             	mov    0x8(%edi),%ebx
  1006dc:	89 74 24 04          	mov    %esi,0x4(%esp)
  1006e0:	83 c0 08             	add    $0x8,%eax
  1006e3:	89 74 24 08          	mov    %esi,0x8(%esp)
  1006e7:	89 74 24 0c          	mov    %esi,0xc(%esp)
  1006eb:	85 db                	test   %ebx,%ebx
  1006ed:	0f 84 c1 05 00 00    	je     100cb4 <kernel_main+0x684>
  1006f3:	31 d2                	xor    %edx,%edx
  1006f5:	31 c9                	xor    %ecx,%ecx
  1006f7:	31 ff                	xor    %edi,%edi
  1006f9:	31 ed                	xor    %ebp,%ebp
  1006fb:	31 f6                	xor    %esi,%esi
  1006fd:	eb 24                	jmp    100723 <kernel_main+0xf3>
  1006ff:	90                   	nop
  100700:	83 fb 08             	cmp    $0x8,%ebx
  100703:	0f 84 07 05 00 00    	je     100c10 <kernel_main+0x5e0>
  100709:	83 fb 03             	cmp    $0x3,%ebx
  10070c:	75 06                	jne    100714 <kernel_main+0xe4>
  10070e:	8b 58 08             	mov    0x8(%eax),%ebx
  100711:	89 1c 24             	mov    %ebx,(%esp)
  100714:	03 40 04             	add    0x4(%eax),%eax
  100717:	83 c0 07             	add    $0x7,%eax
  10071a:	83 e0 f8             	and    $0xfffffff8,%eax
  10071d:	8b 18                	mov    (%eax),%ebx
  10071f:	85 db                	test   %ebx,%ebx
  100721:	74 2c                	je     10074f <kernel_main+0x11f>
  100723:	83 fb 06             	cmp    $0x6,%ebx
  100726:	75 d8                	jne    100700 <kernel_main+0xd0>
  100728:	8d 58 10             	lea    0x10(%eax),%ebx
  10072b:	89 5c 24 0c          	mov    %ebx,0xc(%esp)
  10072f:	8b 58 08             	mov    0x8(%eax),%ebx
  100732:	89 5c 24 08          	mov    %ebx,0x8(%esp)
  100736:	8b 58 04             	mov    0x4(%eax),%ebx
  100739:	03 40 04             	add    0x4(%eax),%eax
  10073c:	83 c0 07             	add    $0x7,%eax
  10073f:	83 eb 10             	sub    $0x10,%ebx
  100742:	83 e0 f8             	and    $0xfffffff8,%eax
  100745:	89 5c 24 04          	mov    %ebx,0x4(%esp)
  100749:	8b 18                	mov    (%eax),%ebx
  10074b:	85 db                	test   %ebx,%ebx
  10074d:	75 d4                	jne    100723 <kernel_main+0xf3>
  10074f:	89 f3                	mov    %esi,%ebx
  100751:	83 ec 0c             	sub    $0xc,%esp
  100754:	52                   	push   %edx
  100755:	51                   	push   %ecx
  100756:	57                   	push   %edi
  100757:	55                   	push   %ebp
  100758:	53                   	push   %ebx
  100759:	e8 62 49 00 00       	call   1050c0 <vesa_init>
  10075e:	31 d2                	xor    %edx,%edx
  100760:	83 c4 20             	add    $0x20,%esp
  100763:	c6 05 04 f0 11 00 07 	movb   $0x7,0x11f004
  10076a:	89 15 0c f0 11 00    	mov    %edx,0x11f00c
  100770:	89 15 08 f0 11 00    	mov    %edx,0x11f008
  100776:	e8 05 fa ff ff       	call   100180 <terminal_clear>
  10077b:	ba 0b 36 11 00       	mov    $0x11360b,%edx
  100780:	b8 0d 36 11 00       	mov    $0x11360d,%eax
  100785:	c6 05 04 f0 11 00 0b 	movb   $0xb,0x11f004
  10078c:	e8 8f fc ff ff       	call   100420 <hline.constprop.0>
  100791:	83 ec 0c             	sub    $0xc,%esp
  100794:	68 0f 36 11 00       	push   $0x11360f
  100799:	e8 d2 fb ff ff       	call   100370 <terminal_writestring>
  10079e:	c7 04 24 12 36 11 00 	movl   $0x113612,(%esp)
  1007a5:	c6 05 04 f0 11 00 0b 	movb   $0xb,0x11f004
  1007ac:	e8 bf fb ff ff       	call   100370 <terminal_writestring>
  1007b1:	c7 04 24 18 36 11 00 	movl   $0x113618,(%esp)
  1007b8:	c6 05 04 f0 11 00 0f 	movb   $0xf,0x11f004
  1007bf:	e8 ac fb ff ff       	call   100370 <terminal_writestring>
  1007c4:	c7 04 24 31 36 11 00 	movl   $0x113631,(%esp)
  1007cb:	c6 05 04 f0 11 00 08 	movb   $0x8,0x11f004
  1007d2:	e8 99 fb ff ff       	call   100370 <terminal_writestring>
  1007d7:	c7 04 24 12 36 11 00 	movl   $0x113612,(%esp)
  1007de:	c6 05 04 f0 11 00 0b 	movb   $0xb,0x11f004
  1007e5:	e8 86 fb ff ff       	call   100370 <terminal_writestring>
  1007ea:	c7 04 24 45 36 11 00 	movl   $0x113645,(%esp)
  1007f1:	c6 05 04 f0 11 00 0f 	movb   $0xf,0x11f004
  1007f8:	e8 73 fb ff ff       	call   100370 <terminal_writestring>
  1007fd:	c7 04 24 94 44 11 00 	movl   $0x114494,(%esp)
  100804:	c6 05 04 f0 11 00 08 	movb   $0x8,0x11f004
  10080b:	e8 60 fb ff ff       	call   100370 <terminal_writestring>
  100810:	c7 04 24 12 36 11 00 	movl   $0x113612,(%esp)
  100817:	c6 05 04 f0 11 00 0b 	movb   $0xb,0x11f004
  10081e:	e8 4d fb ff ff       	call   100370 <terminal_writestring>
  100823:	c7 04 24 5f 36 11 00 	movl   $0x11365f,(%esp)
  10082a:	c6 05 04 f0 11 00 0f 	movb   $0xf,0x11f004
  100831:	e8 3a fb ff ff       	call   100370 <terminal_writestring>
  100836:	c7 04 24 b4 44 11 00 	movl   $0x1144b4,(%esp)
  10083d:	c6 05 04 f0 11 00 08 	movb   $0x8,0x11f004
  100844:	e8 27 fb ff ff       	call   100370 <terminal_writestring>
  100849:	31 c0                	xor    %eax,%eax
  10084b:	ba f9 03 00 00       	mov    $0x3f9,%edx
  100850:	ee                   	out    %al,(%dx)
  100851:	be fb 03 00 00       	mov    $0x3fb,%esi
  100856:	b8 80 ff ff ff       	mov    $0xffffff80,%eax
  10085b:	89 f2                	mov    %esi,%edx
  10085d:	ee                   	out    %al,(%dx)
  10085e:	b9 03 00 00 00       	mov    $0x3,%ecx
  100863:	ba f8 03 00 00       	mov    $0x3f8,%edx
  100868:	89 c8                	mov    %ecx,%eax
  10086a:	ee                   	out    %al,(%dx)
  10086b:	31 c0                	xor    %eax,%eax
  10086d:	ba f9 03 00 00       	mov    $0x3f9,%edx
  100872:	ee                   	out    %al,(%dx)
  100873:	89 c8                	mov    %ecx,%eax
  100875:	89 f2                	mov    %esi,%edx
  100877:	ee                   	out    %al,(%dx)
  100878:	b8 c7 ff ff ff       	mov    $0xffffffc7,%eax
  10087d:	ba fa 03 00 00       	mov    $0x3fa,%edx
  100882:	ee                   	out    %al,(%dx)
  100883:	b8 0b 00 00 00       	mov    $0xb,%eax
  100888:	ba fc 03 00 00       	mov    $0x3fc,%edx
  10088d:	ee                   	out    %al,(%dx)
  10088e:	c6 05 04 f0 11 00 0b 	movb   $0xb,0x11f004
  100895:	c7 04 24 12 36 11 00 	movl   $0x113612,(%esp)
  10089c:	e8 cf fa ff ff       	call   100370 <terminal_writestring>
  1008a1:	c7 04 24 79 36 11 00 	movl   $0x113679,(%esp)
  1008a8:	c6 05 04 f0 11 00 0f 	movb   $0xf,0x11f004
  1008af:	e8 bc fa ff ff       	call   100370 <terminal_writestring>
  1008b4:	c7 04 24 93 36 11 00 	movl   $0x113693,(%esp)
  1008bb:	c6 05 04 f0 11 00 08 	movb   $0x8,0x11f004
  1008c2:	e8 a9 fa ff ff       	call   100370 <terminal_writestring>
  1008c7:	c7 04 24 0f 36 11 00 	movl   $0x11360f,(%esp)
  1008ce:	c6 05 04 f0 11 00 0b 	movb   $0xb,0x11f004
  1008d5:	e8 96 fa ff ff       	call   100370 <terminal_writestring>
  1008da:	b8 b1 36 11 00       	mov    $0x1136b1,%eax
  1008df:	e8 8c fb ff ff       	call   100470 <boot_section>
  1008e4:	e8 47 04 00 00       	call   100d30 <gdt_init>
  1008e9:	ba e0 44 11 00       	mov    $0x1144e0,%edx
  1008ee:	b8 c1 36 11 00       	mov    $0x1136c1,%eax
  1008f3:	e8 a8 fa ff ff       	call   1003a0 <boot_ok>
  1008f8:	e8 d3 04 00 00       	call   100dd0 <idt_init>
  1008fd:	ba 10 45 11 00       	mov    $0x114510,%edx
  100902:	b8 c5 36 11 00       	mov    $0x1136c5,%eax
  100907:	e8 94 fa ff ff       	call   1003a0 <boot_ok>
  10090c:	c7 04 24 64 00 00 00 	movl   $0x64,(%esp)
  100913:	e8 18 21 00 00       	call   102a30 <pit_init>
  100918:	ba c9 36 11 00       	mov    $0x1136c9,%edx
  10091d:	b8 e4 36 11 00       	mov    $0x1136e4,%eax
  100922:	e8 79 fa ff ff       	call   1003a0 <boot_ok>
  100927:	e8 24 0e 00 00       	call   101750 <keyboard_init>
  10092c:	ba e8 36 11 00       	mov    $0x1136e8,%edx
  100931:	b8 03 37 11 00       	mov    $0x113703,%eax
  100936:	e8 65 fa ff ff       	call   1003a0 <boot_ok>
  10093b:	e8 70 53 00 00       	call   105cb0 <mouse_init>
  100940:	ba 40 45 11 00       	mov    $0x114540,%edx
  100945:	b8 07 37 11 00       	mov    $0x113707,%eax
  10094a:	e8 51 fa ff ff       	call   1003a0 <boot_ok>
  10094f:	b8 0b 37 11 00       	mov    $0x11370b,%eax
  100954:	e8 17 fb ff ff       	call   100470 <boot_section>
  100959:	83 c4 0c             	add    $0xc,%esp
  10095c:	ff 74 24 08          	push   0x8(%esp)
  100960:	ff 74 24 10          	push   0x10(%esp)
  100964:	ff 74 24 18          	push   0x18(%esp)
  100968:	e8 d3 1a 00 00       	call   102440 <pmm_init>
  10096d:	e8 ae 1c 00 00       	call   102620 <pmm_get_max_frames>
  100972:	89 c6                	mov    %eax,%esi
  100974:	e8 a7 1c 00 00       	call   102620 <pmm_get_max_frames>
  100979:	c1 e6 02             	shl    $0x2,%esi
  10097c:	c1 ee 0a             	shr    $0xa,%esi
  10097f:	89 04 24             	mov    %eax,(%esp)
  100982:	56                   	push   %esi
  100983:	68 1c 37 11 00       	push   $0x11371c
  100988:	6a 40                	push   $0x40
  10098a:	8d 74 24 4c          	lea    0x4c(%esp),%esi
  10098e:	56                   	push   %esi
  10098f:	e8 6c 1a 00 00       	call   102400 <snprintf>
  100994:	83 c4 20             	add    $0x20,%esp
  100997:	89 f2                	mov    %esi,%edx
  100999:	b8 36 37 11 00       	mov    $0x113736,%eax
  10099e:	e8 fd f9 ff ff       	call   1003a0 <boot_ok>
  1009a3:	e8 f8 1c 00 00       	call   1026a0 <paging_init>
  1009a8:	51                   	push   %ecx
  1009a9:	51                   	push   %ecx
  1009aa:	57                   	push   %edi
  1009ab:	55                   	push   %ebp
  1009ac:	53                   	push   %ebx
  1009ad:	68 60 45 11 00       	push   $0x114560
  1009b2:	6a 40                	push   $0x40
  1009b4:	56                   	push   %esi
  1009b5:	e8 46 1a 00 00       	call   102400 <snprintf>
  1009ba:	83 c4 20             	add    $0x20,%esp
  1009bd:	89 f2                	mov    %esi,%edx
  1009bf:	b8 3a 37 11 00       	mov    $0x11373a,%eax
  1009c4:	e8 d7 f9 ff ff       	call   1003a0 <boot_ok>
  1009c9:	e8 d2 1e 00 00       	call   1028a0 <kheap_init>
  1009ce:	ba 3e 37 11 00       	mov    $0x11373e,%edx
  1009d3:	b8 5b 37 11 00       	mov    $0x11375b,%eax
  1009d8:	e8 c3 f9 ff ff       	call   1003a0 <boot_ok>
  1009dd:	b8 5f 37 11 00       	mov    $0x11375f,%eax
  1009e2:	e8 89 fa ff ff       	call   100470 <boot_section>
  1009e7:	83 ec 0c             	sub    $0xc,%esp
  1009ea:	8d 5c 24 28          	lea    0x28(%esp),%ebx
  1009ee:	53                   	push   %ebx
  1009ef:	e8 9c 22 00 00       	call   102c90 <rtc_datetime_str>
  1009f4:	53                   	push   %ebx
  1009f5:	68 6f 37 11 00       	push   $0x11376f
  1009fa:	6a 30                	push   $0x30
  1009fc:	56                   	push   %esi
  1009fd:	e8 fe 19 00 00       	call   102400 <snprintf>
  100a02:	83 c4 20             	add    $0x20,%esp
  100a05:	89 f2                	mov    %esi,%edx
  100a07:	b8 72 37 11 00       	mov    $0x113772,%eax
  100a0c:	e8 8f f9 ff ff       	call   1003a0 <boot_ok>
  100a11:	b8 76 37 11 00       	mov    $0x113776,%eax
  100a16:	e8 55 fa ff ff       	call   100470 <boot_section>
  100a1b:	8b 04 24             	mov    (%esp),%eax
  100a1e:	85 c0                	test   %eax,%eax
  100a20:	0f 85 ff 01 00 00    	jne    100c25 <kernel_main+0x5f5>
  100a26:	83 ec 0c             	sub    $0xc,%esp
  100a29:	c6 05 04 f0 11 00 0c 	movb   $0xc,0x11f004
  100a30:	68 cc 45 11 00       	push   $0x1145cc
  100a35:	e8 36 f9 ff ff       	call   100370 <terminal_writestring>
  100a3a:	c6 05 04 f0 11 00 07 	movb   $0x7,0x11f004
  100a41:	83 c4 10             	add    $0x10,%esp
  100a44:	b8 8d 37 11 00       	mov    $0x11378d,%eax
  100a49:	e8 22 fa ff ff       	call   100470 <boot_section>
  100a4e:	e8 7d a7 00 00       	call   10b1d0 <ata_init>
  100a53:	85 c0                	test   %eax,%eax
  100a55:	0f 84 fe 01 00 00    	je     100c59 <kernel_main+0x629>
  100a5b:	ba fc 45 11 00       	mov    $0x1145fc,%edx
  100a60:	b8 a0 37 11 00       	mov    $0x1137a0,%eax
  100a65:	e8 36 f9 ff ff       	call   1003a0 <boot_ok>
  100a6a:	e8 41 ae 00 00       	call   10b8b0 <fat16_init>
  100a6f:	85 c0                	test   %eax,%eax
  100a71:	0f 84 1a 02 00 00    	je     100c91 <kernel_main+0x661>
  100a77:	ba 24 46 11 00       	mov    $0x114624,%edx
  100a7c:	b8 a4 37 11 00       	mov    $0x1137a4,%eax
  100a81:	e8 1a f9 ff ff       	call   1003a0 <boot_ok>
  100a86:	83 ec 0c             	sub    $0xc,%esp
  100a89:	68 60 46 11 00       	push   $0x114660
  100a8e:	e8 8d 0e 00 00       	call   101920 <strlen>
  100a93:	83 c4 0c             	add    $0xc,%esp
  100a96:	50                   	push   %eax
  100a97:	68 60 46 11 00       	push   $0x114660
  100a9c:	68 a8 37 11 00       	push   $0x1137a8
  100aa1:	e8 8a b2 00 00       	call   10bd30 <fat16_write_file>
  100aa6:	83 c4 10             	add    $0x10,%esp
  100aa9:	b8 b0 37 11 00       	mov    $0x1137b0,%eax
  100aae:	e8 bd f9 ff ff       	call   100470 <boot_section>
  100ab3:	e8 98 3c 00 00       	call   104750 <tasking_init>
  100ab8:	ba 20 47 11 00       	mov    $0x114720,%edx
  100abd:	b8 bd 37 11 00       	mov    $0x1137bd,%eax
  100ac2:	e8 d9 f8 ff ff       	call   1003a0 <boot_ok>
  100ac7:	e8 a4 1f 00 00       	call   102a70 <pit_enable_scheduling>
  100acc:	ba 58 47 11 00       	mov    $0x114758,%edx
  100ad1:	b8 c1 37 11 00       	mov    $0x1137c1,%eax
  100ad6:	e8 c5 f8 ff ff       	call   1003a0 <boot_ok>
  100adb:	b8 c5 37 11 00       	mov    $0x1137c5,%eax
  100ae0:	e8 8b f9 ff ff       	call   100470 <boot_section>
  100ae5:	e8 86 45 00 00       	call   105070 <syscall_init>
  100aea:	ba 94 47 11 00       	mov    $0x114794,%edx
  100aef:	b8 da 37 11 00       	mov    $0x1137da,%eax
  100af4:	e8 a7 f8 ff ff       	call   1003a0 <boot_ok>
  100af9:	ba b8 47 11 00       	mov    $0x1147b8,%edx
  100afe:	b8 de 37 11 00       	mov    $0x1137de,%eax
  100b03:	e8 98 f8 ff ff       	call   1003a0 <boot_ok>
  100b08:	b8 e2 37 11 00       	mov    $0x1137e2,%eax
  100b0d:	e8 5e f9 ff ff       	call   100470 <boot_section>
  100b12:	e8 69 f7 00 00       	call   110280 <acpi_init>
  100b17:	e8 b4 f8 00 00       	call   1103d0 <apic_init>
  100b1c:	e8 4f fa 00 00       	call   110570 <smp_init>
  100b21:	ba f1 37 11 00       	mov    $0x1137f1,%edx
  100b26:	b8 f3 37 11 00       	mov    $0x1137f3,%eax
  100b2b:	c6 05 04 f0 11 00 0b 	movb   $0xb,0x11f004
  100b32:	e8 e9 f8 ff ff       	call   100420 <hline.constprop.0>
  100b37:	83 ec 0c             	sub    $0xc,%esp
  100b3a:	c6 05 04 f0 11 00 07 	movb   $0x7,0x11f004
  100b41:	6a 0a                	push   $0xa
  100b43:	e8 88 f6 ff ff       	call   1001d0 <terminal_putchar>
  100b48:	b8 f5 37 11 00       	mov    $0x1137f5,%eax
  100b4d:	e8 1e f9 ff ff       	call   100470 <boot_section>
  100b52:	e8 59 60 00 00       	call   106bb0 <wm_init>
  100b57:	ba dc 47 11 00       	mov    $0x1147dc,%edx
  100b5c:	b8 04 38 11 00       	mov    $0x113804,%eax
  100b61:	e8 3a f8 ff ff       	call   1003a0 <boot_ok>
  100b66:	c7 04 24 08 38 11 00 	movl   $0x113808,(%esp)
  100b6d:	68 2c 01 00 00       	push   $0x12c
  100b72:	68 90 01 00 00       	push   $0x190
  100b77:	6a 32                	push   $0x32
  100b79:	6a 32                	push   $0x32
  100b7b:	e8 00 5e 00 00       	call   106980 <wm_create_window>
  100b80:	83 c4 14             	add    $0x14,%esp
  100b83:	68 f6 41 11 00       	push   $0x1141f6
  100b88:	68 90 01 00 00       	push   $0x190
  100b8d:	68 58 02 00 00       	push   $0x258
  100b92:	6a 64                	push   $0x64
  100b94:	68 96 00 00 00       	push   $0x96
  100b99:	e8 e2 5d 00 00       	call   106980 <wm_create_window>
  100b9e:	83 c4 20             	add    $0x20,%esp
  100ba1:	a3 00 f0 11 00       	mov    %eax,0x11f000
  100ba6:	e8 f5 cc 00 00       	call   10d8a0 <rtl8139_init>
  100bab:	e8 d0 d3 00 00       	call   10df80 <sb16_init>
  100bb0:	e8 cb d6 00 00       	call   10e280 <uhci_init>
  100bb5:	50                   	push   %eax
  100bb6:	50                   	push   %eax
  100bb7:	56                   	push   %esi
  100bb8:	68 17 38 11 00       	push   $0x113817
  100bbd:	e8 6e 39 00 00       	call   104530 <tar_get_file>
  100bc2:	83 c4 10             	add    $0x10,%esp
  100bc5:	85 c0                	test   %eax,%eax
  100bc7:	0f 84 af 00 00 00    	je     100c7c <kernel_main+0x64c>
  100bcd:	83 ec 0c             	sub    $0xc,%esp
  100bd0:	50                   	push   %eax
  100bd1:	e8 0a d9 00 00       	call   10e4e0 <ttf_init>
  100bd6:	c7 04 24 ff ff ff 00 	movl   $0xffffff,(%esp)
  100bdd:	68 96 00 00 00       	push   $0x96
  100be2:	6a 32                	push   $0x32
  100be4:	68 0a d7 23 3d       	push   $0x3d23d70a
  100be9:	68 08 48 11 00       	push   $0x114808
  100bee:	e8 cd 5c 00 00       	call   1068c0 <wm_draw_desktop_text>
  100bf3:	83 c4 20             	add    $0x20,%esp
  100bf6:	e8 15 37 00 00       	call   104310 <shell_init>
  100bfb:	2e 8d 74 26 00       	lea    %cs:0x0(%esi,%eiz,1),%esi
  100c00:	e8 6b 6c 00 00       	call   107870 <wm_process_events>
  100c05:	f4                   	hlt
  100c06:	eb f8                	jmp    100c00 <kernel_main+0x5d0>
  100c08:	2e 8d b4 26 00 00 00 	lea    %cs:0x0(%esi,%eiz,1),%esi
  100c0f:	00 
  100c10:	8b 70 08             	mov    0x8(%eax),%esi
  100c13:	8b 68 14             	mov    0x14(%eax),%ebp
  100c16:	8b 78 18             	mov    0x18(%eax),%edi
  100c19:	8b 48 10             	mov    0x10(%eax),%ecx
  100c1c:	0f b6 50 1c          	movzbl 0x1c(%eax),%edx
  100c20:	e9 ef fa ff ff       	jmp    100714 <kernel_main+0xe4>
  100c25:	83 ec 0c             	sub    $0xc,%esp
  100c28:	50                   	push   %eax
  100c29:	e8 52 37 00 00       	call   104380 <tar_init>
  100c2e:	ba 98 45 11 00       	mov    $0x114598,%edx
  100c33:	b8 89 37 11 00       	mov    $0x113789,%eax
  100c38:	e8 63 f7 ff ff       	call   1003a0 <boot_ok>
  100c3d:	83 c4 0c             	add    $0xc,%esp
  100c40:	6a 32                	push   $0x32
  100c42:	68 52 03 00 00       	push   $0x352
  100c47:	68 36 41 11 00       	push   $0x114136
  100c4c:	e8 7f 4b 00 00       	call   1057d0 <bmp_draw_file>
  100c51:	83 c4 10             	add    $0x10,%esp
  100c54:	e9 eb fd ff ff       	jmp    100a44 <kernel_main+0x414>
  100c59:	83 ec 0c             	sub    $0xc,%esp
  100c5c:	c6 05 04 f0 11 00 0c 	movb   $0xc,0x11f004
  100c63:	68 e8 46 11 00       	push   $0x1146e8
  100c68:	e8 03 f7 ff ff       	call   100370 <terminal_writestring>
  100c6d:	c6 05 04 f0 11 00 07 	movb   $0x7,0x11f004
  100c74:	83 c4 10             	add    $0x10,%esp
  100c77:	e9 2d fe ff ff       	jmp    100aa9 <kernel_main+0x479>
  100c7c:	83 ec 0c             	sub    $0xc,%esp
  100c7f:	68 28 48 11 00       	push   $0x114828
  100c84:	e8 87 f9 ff ff       	call   100610 <terminal_printf>
  100c89:	83 c4 10             	add    $0x10,%esp
  100c8c:	e9 65 ff ff ff       	jmp    100bf6 <kernel_main+0x5c6>
  100c91:	83 ec 0c             	sub    $0xc,%esp
  100c94:	c6 05 04 f0 11 00 06 	movb   $0x6,0x11f004
  100c9b:	68 ac 46 11 00       	push   $0x1146ac
  100ca0:	e8 cb f6 ff ff       	call   100370 <terminal_writestring>
  100ca5:	c6 05 04 f0 11 00 07 	movb   $0x7,0x11f004
  100cac:	83 c4 10             	add    $0x10,%esp
  100caf:	e9 f5 fd ff ff       	jmp    100aa9 <kernel_main+0x479>
  100cb4:	31 c9                	xor    %ecx,%ecx
  100cb6:	31 ff                	xor    %edi,%edi
  100cb8:	31 ed                	xor    %ebp,%ebp
  100cba:	31 d2                	xor    %edx,%edx
  100cbc:	e9 90 fa ff ff       	jmp    100751 <kernel_main+0x121>
  100cc1:	66 90                	xchg   %ax,%ax
  100cc3:	66 90                	xchg   %ax,%ax
  100cc5:	66 90                	xchg   %ax,%ax
  100cc7:	66 90                	xchg   %ax,%ax
  100cc9:	66 90                	xchg   %ax,%ax
  100ccb:	66 90                	xchg   %ax,%ax
  100ccd:	66 90                	xchg   %ax,%ax
  100ccf:	90                   	nop

00100cd0 <gdt_set_entry_external>:
  100cd0:	57                   	push   %edi
  100cd1:	31 d2                	xor    %edx,%edx
  100cd3:	56                   	push   %esi
  100cd4:	53                   	push   %ebx
  100cd5:	8b 4c 24 14          	mov    0x14(%esp),%ecx
  100cd9:	8b 7c 24 18          	mov    0x18(%esp),%edi
  100cdd:	8b 5c 24 10          	mov    0x10(%esp),%ebx
  100ce1:	89 ce                	mov    %ecx,%esi
  100ce3:	c1 ee 10             	shr    $0x10,%esi
  100ce6:	66 89 0c dd 42 f0 11 	mov    %cx,0x11f042(,%ebx,8)
  100ced:	00 
  100cee:	81 e1 00 00 00 ff    	and    $0xff000000,%ecx
  100cf4:	89 f0                	mov    %esi,%eax
  100cf6:	0f b6 74 24 20       	movzbl 0x20(%esp),%esi
  100cfb:	66 89 3c dd 40 f0 11 	mov    %di,0x11f040(,%ebx,8)
  100d02:	00 
  100d03:	88 c2                	mov    %al,%dl
  100d05:	89 f8                	mov    %edi,%eax
  100d07:	8a 74 24 1c          	mov    0x1c(%esp),%dh
  100d0b:	c1 e8 10             	shr    $0x10,%eax
  100d0e:	83 e6 f0             	and    $0xfffffff0,%esi
  100d11:	83 e0 0f             	and    $0xf,%eax
  100d14:	0f b7 d2             	movzwl %dx,%edx
  100d17:	09 f0                	or     %esi,%eax
  100d19:	0f b6 c0             	movzbl %al,%eax
  100d1c:	c1 e0 10             	shl    $0x10,%eax
  100d1f:	09 c2                	or     %eax,%edx
  100d21:	09 d1                	or     %edx,%ecx
  100d23:	89 0c dd 44 f0 11 00 	mov    %ecx,0x11f044(,%ebx,8)
  100d2a:	5b                   	pop    %ebx
  100d2b:	5e                   	pop    %esi
  100d2c:	5f                   	pop    %edi
  100d2d:	c3                   	ret
  100d2e:	66 90                	xchg   %ax,%ax

00100d30 <gdt_init>:
  100d30:	83 ec 10             	sub    $0x10,%esp
  100d33:	b8 2f 00 00 00       	mov    $0x2f,%eax
  100d38:	c7 05 22 f0 11 00 40 	movl   $0x11f040,0x11f022
  100d3f:	f0 11 00 
  100d42:	68 00 00 09 00       	push   $0x90000
  100d47:	6a 10                	push   $0x10
  100d49:	6a 05                	push   $0x5
  100d4b:	66 a3 20 f0 11 00    	mov    %ax,0x11f020
  100d51:	c7 05 40 f0 11 00 00 	movl   $0x0,0x11f040
  100d58:	00 00 00 
  100d5b:	c7 05 44 f0 11 00 00 	movl   $0x0,0x11f044
  100d62:	00 00 00 
  100d65:	c7 05 48 f0 11 00 ff 	movl   $0xffff,0x11f048
  100d6c:	ff 00 00 
  100d6f:	c7 05 4c f0 11 00 00 	movl   $0xcf9a00,0x11f04c
  100d76:	9a cf 00 
  100d79:	c7 05 50 f0 11 00 ff 	movl   $0xffff,0x11f050
  100d80:	ff 00 00 
  100d83:	c7 05 54 f0 11 00 00 	movl   $0xcf9200,0x11f054
  100d8a:	92 cf 00 
  100d8d:	c7 05 58 f0 11 00 ff 	movl   $0xffff,0x11f058
  100d94:	ff 00 00 
  100d97:	c7 05 5c f0 11 00 00 	movl   $0xcffa00,0x11f05c
  100d9e:	fa cf 00 
  100da1:	c7 05 60 f0 11 00 ff 	movl   $0xffff,0x11f060
  100da8:	ff 00 00 
  100dab:	c7 05 64 f0 11 00 00 	movl   $0xcff200,0x11f064
  100db2:	f2 cf 00 
  100db5:	e8 26 3f 00 00       	call   104ce0 <tss_init>
  100dba:	c7 04 24 20 f0 11 00 	movl   $0x11f020,(%esp)
  100dc1:	e8 be f8 00 00       	call   110684 <gdt_flush>
  100dc6:	83 c4 1c             	add    $0x1c,%esp
  100dc9:	e9 d3 f8 00 00       	jmp    1106a1 <tss_flush>
  100dce:	66 90                	xchg   %ax,%ax

00100dd0 <idt_init>:
  100dd0:	b8 ff 07 00 00       	mov    $0x7ff,%eax
  100dd5:	56                   	push   %esi
  100dd6:	53                   	push   %ebx
  100dd7:	66 a3 80 f4 11 00    	mov    %ax,0x11f480
  100ddd:	b8 a9 06 11 00       	mov    $0x1106a9,%eax
  100de2:	66 a3 a0 f4 11 00    	mov    %ax,0x11f4a0
  100de8:	c1 e8 10             	shr    $0x10,%eax
  100deb:	66 a3 a6 f4 11 00    	mov    %ax,0x11f4a6
  100df1:	b8 b2 06 11 00       	mov    $0x1106b2,%eax
  100df6:	66 a3 a8 f4 11 00    	mov    %ax,0x11f4a8
  100dfc:	c1 e8 10             	shr    $0x10,%eax
  100dff:	66 a3 ae f4 11 00    	mov    %ax,0x11f4ae
  100e05:	b8 bb 06 11 00       	mov    $0x1106bb,%eax
  100e0a:	66 a3 b0 f4 11 00    	mov    %ax,0x11f4b0
  100e10:	c1 e8 10             	shr    $0x10,%eax
  100e13:	66 a3 b6 f4 11 00    	mov    %ax,0x11f4b6
  100e19:	b8 c4 06 11 00       	mov    $0x1106c4,%eax
  100e1e:	66 a3 b8 f4 11 00    	mov    %ax,0x11f4b8
  100e24:	c1 e8 10             	shr    $0x10,%eax
  100e27:	66 a3 be f4 11 00    	mov    %ax,0x11f4be
  100e2d:	b8 cd 06 11 00       	mov    $0x1106cd,%eax
  100e32:	66 a3 c0 f4 11 00    	mov    %ax,0x11f4c0
  100e38:	c1 e8 10             	shr    $0x10,%eax
  100e3b:	66 a3 c6 f4 11 00    	mov    %ax,0x11f4c6
  100e41:	b8 d6 06 11 00       	mov    $0x1106d6,%eax
  100e46:	66 a3 c8 f4 11 00    	mov    %ax,0x11f4c8
  100e4c:	c1 e8 10             	shr    $0x10,%eax
  100e4f:	66 a3 ce f4 11 00    	mov    %ax,0x11f4ce
  100e55:	b8 df 06 11 00       	mov    $0x1106df,%eax
  100e5a:	66 a3 d0 f4 11 00    	mov    %ax,0x11f4d0
  100e60:	c1 e8 10             	shr    $0x10,%eax
  100e63:	66 a3 d6 f4 11 00    	mov    %ax,0x11f4d6
  100e69:	b8 e8 06 11 00       	mov    $0x1106e8,%eax
  100e6e:	66 a3 d8 f4 11 00    	mov    %ax,0x11f4d8
  100e74:	c1 e8 10             	shr    $0x10,%eax
  100e77:	66 a3 de f4 11 00    	mov    %ax,0x11f4de
  100e7d:	b8 f1 06 11 00       	mov    $0x1106f1,%eax
  100e82:	66 a3 e0 f4 11 00    	mov    %ax,0x11f4e0
  100e88:	c1 e8 10             	shr    $0x10,%eax
  100e8b:	66 a3 e6 f4 11 00    	mov    %ax,0x11f4e6
  100e91:	b8 f8 06 11 00       	mov    $0x1106f8,%eax
  100e96:	c7 05 82 f4 11 00 a0 	movl   $0x11f4a0,0x11f482
  100e9d:	f4 11 00 
  100ea0:	c7 05 a2 f4 11 00 08 	movl   $0x8e000008,0x11f4a2
  100ea7:	00 00 8e 
  100eaa:	c7 05 aa f4 11 00 08 	movl   $0x8e000008,0x11f4aa
  100eb1:	00 00 8e 
  100eb4:	c7 05 b2 f4 11 00 08 	movl   $0x8e000008,0x11f4b2
  100ebb:	00 00 8e 
  100ebe:	c7 05 ba f4 11 00 08 	movl   $0x8e000008,0x11f4ba
  100ec5:	00 00 8e 
  100ec8:	c7 05 c2 f4 11 00 08 	movl   $0x8e000008,0x11f4c2
  100ecf:	00 00 8e 
  100ed2:	c7 05 ca f4 11 00 08 	movl   $0x8e000008,0x11f4ca
  100ed9:	00 00 8e 
  100edc:	c7 05 d2 f4 11 00 08 	movl   $0x8e000008,0x11f4d2
  100ee3:	00 00 8e 
  100ee6:	c7 05 da f4 11 00 08 	movl   $0x8e000008,0x11f4da
  100eed:	00 00 8e 
  100ef0:	c7 05 e2 f4 11 00 08 	movl   $0x8e000008,0x11f4e2
  100ef7:	00 00 8e 
  100efa:	66 a3 e8 f4 11 00    	mov    %ax,0x11f4e8
  100f00:	c1 e8 10             	shr    $0x10,%eax
  100f03:	66 a3 ee f4 11 00    	mov    %ax,0x11f4ee
  100f09:	b8 01 07 11 00       	mov    $0x110701,%eax
  100f0e:	66 a3 f0 f4 11 00    	mov    %ax,0x11f4f0
  100f14:	c1 e8 10             	shr    $0x10,%eax
  100f17:	66 a3 f6 f4 11 00    	mov    %ax,0x11f4f6
  100f1d:	b8 08 07 11 00       	mov    $0x110708,%eax
  100f22:	66 a3 f8 f4 11 00    	mov    %ax,0x11f4f8
  100f28:	c1 e8 10             	shr    $0x10,%eax
  100f2b:	66 a3 fe f4 11 00    	mov    %ax,0x11f4fe
  100f31:	b8 0f 07 11 00       	mov    $0x11070f,%eax
  100f36:	66 a3 00 f5 11 00    	mov    %ax,0x11f500
  100f3c:	c1 e8 10             	shr    $0x10,%eax
  100f3f:	66 a3 06 f5 11 00    	mov    %ax,0x11f506
  100f45:	b8 16 07 11 00       	mov    $0x110716,%eax
  100f4a:	66 a3 08 f5 11 00    	mov    %ax,0x11f508
  100f50:	c1 e8 10             	shr    $0x10,%eax
  100f53:	66 a3 0e f5 11 00    	mov    %ax,0x11f50e
  100f59:	b8 1d 07 11 00       	mov    $0x11071d,%eax
  100f5e:	66 a3 10 f5 11 00    	mov    %ax,0x11f510
  100f64:	c1 e8 10             	shr    $0x10,%eax
  100f67:	66 a3 16 f5 11 00    	mov    %ax,0x11f516
  100f6d:	b8 24 07 11 00       	mov    $0x110724,%eax
  100f72:	66 a3 18 f5 11 00    	mov    %ax,0x11f518
  100f78:	c1 e8 10             	shr    $0x10,%eax
  100f7b:	66 a3 1e f5 11 00    	mov    %ax,0x11f51e
  100f81:	b8 2d 07 11 00       	mov    $0x11072d,%eax
  100f86:	66 a3 20 f5 11 00    	mov    %ax,0x11f520
  100f8c:	c1 e8 10             	shr    $0x10,%eax
  100f8f:	66 a3 26 f5 11 00    	mov    %ax,0x11f526
  100f95:	b8 36 07 11 00       	mov    $0x110736,%eax
  100f9a:	66 a3 28 f5 11 00    	mov    %ax,0x11f528
  100fa0:	c1 e8 10             	shr    $0x10,%eax
  100fa3:	66 a3 2e f5 11 00    	mov    %ax,0x11f52e
  100fa9:	b8 3d 07 11 00       	mov    $0x11073d,%eax
  100fae:	66 a3 30 f5 11 00    	mov    %ax,0x11f530
  100fb4:	c1 e8 10             	shr    $0x10,%eax
  100fb7:	66 a3 36 f5 11 00    	mov    %ax,0x11f536
  100fbd:	b8 46 07 11 00       	mov    $0x110746,%eax
  100fc2:	66 a3 38 f5 11 00    	mov    %ax,0x11f538
  100fc8:	c1 e8 10             	shr    $0x10,%eax
  100fcb:	66 a3 3e f5 11 00    	mov    %ax,0x11f53e
  100fd1:	b8 4f 07 11 00       	mov    $0x11074f,%eax
  100fd6:	c7 05 ea f4 11 00 08 	movl   $0x8e000008,0x11f4ea
  100fdd:	00 00 8e 
  100fe0:	c7 05 f2 f4 11 00 08 	movl   $0x8e000008,0x11f4f2
  100fe7:	00 00 8e 
  100fea:	c7 05 fa f4 11 00 08 	movl   $0x8e000008,0x11f4fa
  100ff1:	00 00 8e 
  100ff4:	c7 05 02 f5 11 00 08 	movl   $0x8e000008,0x11f502
  100ffb:	00 00 8e 
  100ffe:	c7 05 0a f5 11 00 08 	movl   $0x8e000008,0x11f50a
  101005:	00 00 8e 
  101008:	c7 05 12 f5 11 00 08 	movl   $0x8e000008,0x11f512
  10100f:	00 00 8e 
  101012:	c7 05 1a f5 11 00 08 	movl   $0x8e000008,0x11f51a
  101019:	00 00 8e 
  10101c:	c7 05 22 f5 11 00 08 	movl   $0x8e000008,0x11f522
  101023:	00 00 8e 
  101026:	c7 05 2a f5 11 00 08 	movl   $0x8e000008,0x11f52a
  10102d:	00 00 8e 
  101030:	c7 05 32 f5 11 00 08 	movl   $0x8e000008,0x11f532
  101037:	00 00 8e 
  10103a:	c7 05 3a f5 11 00 08 	movl   $0x8e000008,0x11f53a
  101041:	00 00 8e 
  101044:	66 a3 40 f5 11 00    	mov    %ax,0x11f540
  10104a:	c1 e8 10             	shr    $0x10,%eax
  10104d:	66 a3 46 f5 11 00    	mov    %ax,0x11f546
  101053:	b8 58 07 11 00       	mov    $0x110758,%eax
  101058:	66 a3 48 f5 11 00    	mov    %ax,0x11f548
  10105e:	c1 e8 10             	shr    $0x10,%eax
  101061:	66 a3 4e f5 11 00    	mov    %ax,0x11f54e
  101067:	b8 61 07 11 00       	mov    $0x110761,%eax
  10106c:	66 a3 50 f5 11 00    	mov    %ax,0x11f550
  101072:	c1 e8 10             	shr    $0x10,%eax
  101075:	66 a3 56 f5 11 00    	mov    %ax,0x11f556
  10107b:	b8 6a 07 11 00       	mov    $0x11076a,%eax
  101080:	66 a3 58 f5 11 00    	mov    %ax,0x11f558
  101086:	c1 e8 10             	shr    $0x10,%eax
  101089:	66 a3 5e f5 11 00    	mov    %ax,0x11f55e
  10108f:	b8 73 07 11 00       	mov    $0x110773,%eax
  101094:	66 a3 60 f5 11 00    	mov    %ax,0x11f560
  10109a:	c1 e8 10             	shr    $0x10,%eax
  10109d:	66 a3 66 f5 11 00    	mov    %ax,0x11f566
  1010a3:	b8 7c 07 11 00       	mov    $0x11077c,%eax
  1010a8:	66 a3 68 f5 11 00    	mov    %ax,0x11f568
  1010ae:	c1 e8 10             	shr    $0x10,%eax
  1010b1:	66 a3 6e f5 11 00    	mov    %ax,0x11f56e
  1010b7:	b8 85 07 11 00       	mov    $0x110785,%eax
  1010bc:	66 a3 70 f5 11 00    	mov    %ax,0x11f570
  1010c2:	c1 e8 10             	shr    $0x10,%eax
  1010c5:	66 a3 76 f5 11 00    	mov    %ax,0x11f576
  1010cb:	b8 8e 07 11 00       	mov    $0x11078e,%eax
  1010d0:	66 a3 78 f5 11 00    	mov    %ax,0x11f578
  1010d6:	c1 e8 10             	shr    $0x10,%eax
  1010d9:	66 a3 7e f5 11 00    	mov    %ax,0x11f57e
  1010df:	b8 97 07 11 00       	mov    $0x110797,%eax
  1010e4:	66 a3 80 f5 11 00    	mov    %ax,0x11f580
  1010ea:	c1 e8 10             	shr    $0x10,%eax
  1010ed:	66 a3 86 f5 11 00    	mov    %ax,0x11f586
  1010f3:	b8 9d 07 11 00       	mov    $0x11079d,%eax
  1010f8:	66 a3 88 f5 11 00    	mov    %ax,0x11f588
  1010fe:	c1 e8 10             	shr    $0x10,%eax
  101101:	66 a3 8e f5 11 00    	mov    %ax,0x11f58e
  101107:	b8 a3 07 11 00       	mov    $0x1107a3,%eax
  10110c:	66 a3 90 f5 11 00    	mov    %ax,0x11f590
  101112:	c1 e8 10             	shr    $0x10,%eax
  101115:	66 a3 96 f5 11 00    	mov    %ax,0x11f596
  10111b:	b8 a7 07 11 00       	mov    $0x1107a7,%eax
  101120:	c7 05 42 f5 11 00 08 	movl   $0x8e000008,0x11f542
  101127:	00 00 8e 
  10112a:	c7 05 4a f5 11 00 08 	movl   $0x8e000008,0x11f54a
  101131:	00 00 8e 
  101134:	c7 05 52 f5 11 00 08 	movl   $0x8e000008,0x11f552
  10113b:	00 00 8e 
  10113e:	c7 05 5a f5 11 00 08 	movl   $0x8e000008,0x11f55a
  101145:	00 00 8e 
  101148:	c7 05 62 f5 11 00 08 	movl   $0x8e000008,0x11f562
  10114f:	00 00 8e 
  101152:	c7 05 6a f5 11 00 08 	movl   $0x8e000008,0x11f56a
  101159:	00 00 8e 
  10115c:	c7 05 72 f5 11 00 08 	movl   $0x8e000008,0x11f572
  101163:	00 00 8e 
  101166:	c7 05 7a f5 11 00 08 	movl   $0x8e000008,0x11f57a
  10116d:	00 00 8e 
  101170:	c7 05 82 f5 11 00 08 	movl   $0x8e000008,0x11f582
  101177:	00 00 8e 
  10117a:	c7 05 8a f5 11 00 08 	movl   $0x8e000008,0x11f58a
  101181:	00 00 8e 
  101184:	c7 05 92 f5 11 00 08 	movl   $0x8e000008,0x11f592
  10118b:	00 00 8e 
  10118e:	66 a3 98 f5 11 00    	mov    %ax,0x11f598
  101194:	c1 e8 10             	shr    $0x10,%eax
  101197:	66 a3 9e f5 11 00    	mov    %ax,0x11f59e
  10119d:	c7 05 9a f5 11 00 08 	movl   $0x8e000008,0x11f59a
  1011a4:	00 00 8e 
  1011a7:	e4 21                	in     $0x21,%al
  1011a9:	89 c6                	mov    %eax,%esi
  1011ab:	e4 a1                	in     $0xa1,%al
  1011ad:	b9 11 00 00 00       	mov    $0x11,%ecx
  1011b2:	89 c3                	mov    %eax,%ebx
  1011b4:	89 c8                	mov    %ecx,%eax
  1011b6:	e6 20                	out    %al,$0x20
  1011b8:	31 d2                	xor    %edx,%edx
  1011ba:	89 d0                	mov    %edx,%eax
  1011bc:	e6 80                	out    %al,$0x80
  1011be:	89 c8                	mov    %ecx,%eax
  1011c0:	e6 a0                	out    %al,$0xa0
  1011c2:	89 d0                	mov    %edx,%eax
  1011c4:	e6 80                	out    %al,$0x80
  1011c6:	b8 20 00 00 00       	mov    $0x20,%eax
  1011cb:	e6 21                	out    %al,$0x21
  1011cd:	89 d0                	mov    %edx,%eax
  1011cf:	e6 80                	out    %al,$0x80
  1011d1:	b8 28 00 00 00       	mov    $0x28,%eax
  1011d6:	e6 a1                	out    %al,$0xa1
  1011d8:	89 d0                	mov    %edx,%eax
  1011da:	e6 80                	out    %al,$0x80
  1011dc:	b8 04 00 00 00       	mov    $0x4,%eax
  1011e1:	e6 21                	out    %al,$0x21
  1011e3:	89 d0                	mov    %edx,%eax
  1011e5:	e6 80                	out    %al,$0x80
  1011e7:	b8 02 00 00 00       	mov    $0x2,%eax
  1011ec:	e6 a1                	out    %al,$0xa1
  1011ee:	89 d0                	mov    %edx,%eax
  1011f0:	e6 80                	out    %al,$0x80
  1011f2:	b9 01 00 00 00       	mov    $0x1,%ecx
  1011f7:	89 c8                	mov    %ecx,%eax
  1011f9:	e6 21                	out    %al,$0x21
  1011fb:	89 d0                	mov    %edx,%eax
  1011fd:	e6 80                	out    %al,$0x80
  1011ff:	89 c8                	mov    %ecx,%eax
  101201:	e6 a1                	out    %al,$0xa1
  101203:	89 d0                	mov    %edx,%eax
  101205:	e6 80                	out    %al,$0x80
  101207:	89 f0                	mov    %esi,%eax
  101209:	e6 21                	out    %al,$0x21
  10120b:	89 d8                	mov    %ebx,%eax
  10120d:	e6 a1                	out    %al,$0xa1
  10120f:	c7 05 a2 f5 11 00 08 	movl   $0x8e000008,0x11f5a2
  101216:	00 00 8e 
  101219:	b8 ad 07 11 00       	mov    $0x1107ad,%eax
  10121e:	66 a3 a0 f5 11 00    	mov    %ax,0x11f5a0
  101224:	c1 e8 10             	shr    $0x10,%eax
  101227:	66 a3 a6 f5 11 00    	mov    %ax,0x11f5a6
  10122d:	b8 b6 07 11 00       	mov    $0x1107b6,%eax
  101232:	66 a3 a8 f5 11 00    	mov    %ax,0x11f5a8
  101238:	c1 e8 10             	shr    $0x10,%eax
  10123b:	66 a3 ae f5 11 00    	mov    %ax,0x11f5ae
  101241:	b8 bf 07 11 00       	mov    $0x1107bf,%eax
  101246:	66 a3 b0 f5 11 00    	mov    %ax,0x11f5b0
  10124c:	c1 e8 10             	shr    $0x10,%eax
  10124f:	66 a3 b6 f5 11 00    	mov    %ax,0x11f5b6
  101255:	b8 c5 07 11 00       	mov    $0x1107c5,%eax
  10125a:	66 a3 b8 f5 11 00    	mov    %ax,0x11f5b8
  101260:	c1 e8 10             	shr    $0x10,%eax
  101263:	66 a3 be f5 11 00    	mov    %ax,0x11f5be
  101269:	b8 cb 07 11 00       	mov    $0x1107cb,%eax
  10126e:	66 a3 c0 f5 11 00    	mov    %ax,0x11f5c0
  101274:	c1 e8 10             	shr    $0x10,%eax
  101277:	66 a3 c6 f5 11 00    	mov    %ax,0x11f5c6
  10127d:	b8 d1 07 11 00       	mov    $0x1107d1,%eax
  101282:	66 a3 c8 f5 11 00    	mov    %ax,0x11f5c8
  101288:	c1 e8 10             	shr    $0x10,%eax
  10128b:	66 a3 ce f5 11 00    	mov    %ax,0x11f5ce
  101291:	b8 d7 07 11 00       	mov    $0x1107d7,%eax
  101296:	66 a3 d0 f5 11 00    	mov    %ax,0x11f5d0
  10129c:	c1 e8 10             	shr    $0x10,%eax
  10129f:	66 a3 d6 f5 11 00    	mov    %ax,0x11f5d6
  1012a5:	b8 dd 07 11 00       	mov    $0x1107dd,%eax
  1012aa:	66 a3 d8 f5 11 00    	mov    %ax,0x11f5d8
  1012b0:	c1 e8 10             	shr    $0x10,%eax
  1012b3:	66 a3 de f5 11 00    	mov    %ax,0x11f5de
  1012b9:	b8 e3 07 11 00       	mov    $0x1107e3,%eax
  1012be:	66 a3 e0 f5 11 00    	mov    %ax,0x11f5e0
  1012c4:	c1 e8 10             	shr    $0x10,%eax
  1012c7:	66 a3 e6 f5 11 00    	mov    %ax,0x11f5e6
  1012cd:	b8 e9 07 11 00       	mov    $0x1107e9,%eax
  1012d2:	66 a3 e8 f5 11 00    	mov    %ax,0x11f5e8
  1012d8:	c1 e8 10             	shr    $0x10,%eax
  1012db:	66 a3 ee f5 11 00    	mov    %ax,0x11f5ee
  1012e1:	b8 ef 07 11 00       	mov    $0x1107ef,%eax
  1012e6:	66 a3 f0 f5 11 00    	mov    %ax,0x11f5f0
  1012ec:	c1 e8 10             	shr    $0x10,%eax
  1012ef:	66 a3 f6 f5 11 00    	mov    %ax,0x11f5f6
  1012f5:	b8 f5 07 11 00       	mov    $0x1107f5,%eax
  1012fa:	c7 05 aa f5 11 00 08 	movl   $0x8e000008,0x11f5aa
  101301:	00 00 8e 
  101304:	c7 05 b2 f5 11 00 08 	movl   $0x8e000008,0x11f5b2
  10130b:	00 00 8e 
  10130e:	c7 05 ba f5 11 00 08 	movl   $0x8e000008,0x11f5ba
  101315:	00 00 8e 
  101318:	c7 05 c2 f5 11 00 08 	movl   $0x8e000008,0x11f5c2
  10131f:	00 00 8e 
  101322:	c7 05 ca f5 11 00 08 	movl   $0x8e000008,0x11f5ca
  101329:	00 00 8e 
  10132c:	c7 05 d2 f5 11 00 08 	movl   $0x8e000008,0x11f5d2
  101333:	00 00 8e 
  101336:	c7 05 da f5 11 00 08 	movl   $0x8e000008,0x11f5da
  10133d:	00 00 8e 
  101340:	c7 05 e2 f5 11 00 08 	movl   $0x8e000008,0x11f5e2
  101347:	00 00 8e 
  10134a:	c7 05 ea f5 11 00 08 	movl   $0x8e000008,0x11f5ea
  101351:	00 00 8e 
  101354:	c7 05 f2 f5 11 00 08 	movl   $0x8e000008,0x11f5f2
  10135b:	00 00 8e 
  10135e:	66 a3 f8 f5 11 00    	mov    %ax,0x11f5f8
  101364:	c1 e8 10             	shr    $0x10,%eax
  101367:	66 a3 fe f5 11 00    	mov    %ax,0x11f5fe
  10136d:	b8 fb 07 11 00       	mov    $0x1107fb,%eax
  101372:	66 a3 00 f6 11 00    	mov    %ax,0x11f600
  101378:	c1 e8 10             	shr    $0x10,%eax
  10137b:	66 a3 06 f6 11 00    	mov    %ax,0x11f606
  101381:	b8 01 08 11 00       	mov    $0x110801,%eax
  101386:	66 a3 08 f6 11 00    	mov    %ax,0x11f608
  10138c:	c1 e8 10             	shr    $0x10,%eax
  10138f:	66 a3 0e f6 11 00    	mov    %ax,0x11f60e
  101395:	b8 07 08 11 00       	mov    $0x110807,%eax
  10139a:	66 a3 10 f6 11 00    	mov    %ax,0x11f610
  1013a0:	c1 e8 10             	shr    $0x10,%eax
  1013a3:	66 a3 16 f6 11 00    	mov    %ax,0x11f616
  1013a9:	b8 0d 08 11 00       	mov    $0x11080d,%eax
  1013ae:	66 a3 18 f6 11 00    	mov    %ax,0x11f618
  1013b4:	c1 e8 10             	shr    $0x10,%eax
  1013b7:	66 a3 1e f6 11 00    	mov    %ax,0x11f61e
  1013bd:	b8 13 08 11 00       	mov    $0x110813,%eax
  1013c2:	66 a3 a0 f8 11 00    	mov    %ax,0x11f8a0
  1013c8:	c1 e8 10             	shr    $0x10,%eax
  1013cb:	66 a3 a6 f8 11 00    	mov    %ax,0x11f8a6
  1013d1:	b8 80 f4 11 00       	mov    $0x11f480,%eax
  1013d6:	c7 05 fa f5 11 00 08 	movl   $0x8e000008,0x11f5fa
  1013dd:	00 00 8e 
  1013e0:	c7 05 02 f6 11 00 08 	movl   $0x8e000008,0x11f602
  1013e7:	00 00 8e 
  1013ea:	c7 05 0a f6 11 00 08 	movl   $0x8e000008,0x11f60a
  1013f1:	00 00 8e 
  1013f4:	c7 05 12 f6 11 00 08 	movl   $0x8e000008,0x11f612
  1013fb:	00 00 8e 
  1013fe:	c7 05 1a f6 11 00 08 	movl   $0x8e000008,0x11f61a
  101405:	00 00 8e 
  101408:	c7 05 a2 f8 11 00 08 	movl   $0xee000008,0x11f8a2
  10140f:	00 00 ee 
  101412:	0f 01 18             	lidtl  (%eax)
  101415:	fb                   	sti
  101416:	5b                   	pop    %ebx
  101417:	5e                   	pop    %esi
  101418:	c3                   	ret
  101419:	8d b4 26 00 00 00 00 	lea    0x0(%esi,%eiz,1),%esi

00101420 <register_interrupt_handler>:
  101420:	0f b6 44 24 04       	movzbl 0x4(%esp),%eax
  101425:	8b 54 24 08          	mov    0x8(%esp),%edx
  101429:	89 14 85 80 f0 11 00 	mov    %edx,0x11f080(,%eax,4)
  101430:	c3                   	ret
  101431:	2e 8d b4 26 00 00 00 	lea    %cs:0x0(%esi,%eiz,1),%esi
  101438:	00 
  101439:	8d b4 26 00 00 00 00 	lea    0x0(%esi,%eiz,1),%esi

00101440 <isr_handler>:
  101440:	56                   	push   %esi
  101441:	53                   	push   %ebx
  101442:	83 ec 04             	sub    $0x4,%esp
  101445:	8b 54 24 34          	mov    0x34(%esp),%edx
  101449:	8b 04 95 80 f0 11 00 	mov    0x11f080(,%edx,4),%eax
  101450:	85 c0                	test   %eax,%eax
  101452:	74 1c                	je     101470 <isr_handler+0x30>
  101454:	83 ec 0c             	sub    $0xc,%esp
  101457:	8d 54 24 1c          	lea    0x1c(%esp),%edx
  10145b:	52                   	push   %edx
  10145c:	ff d0                	call   *%eax
  10145e:	83 c4 10             	add    $0x10,%esp
  101461:	83 c4 04             	add    $0x4,%esp
  101464:	5b                   	pop    %ebx
  101465:	5e                   	pop    %esi
  101466:	c3                   	ret
  101467:	2e 8d b4 26 00 00 00 	lea    %cs:0x0(%esi,%eiz,1),%esi
  10146e:	00 
  10146f:	90                   	nop
  101470:	83 fa 1f             	cmp    $0x1f,%edx
  101473:	77 ec                	ja     101461 <isr_handler+0x21>
  101475:	83 ec 0c             	sub    $0xc,%esp
  101478:	6a 4f                	push   $0x4f
  10147a:	e8 41 ed ff ff       	call   1001c0 <terminal_setcolor>
  10147f:	c7 04 24 20 38 11 00 	movl   $0x113820,(%esp)
  101486:	e8 e5 ee ff ff       	call   100370 <terminal_writestring>
  10148b:	8b 44 24 44          	mov    0x44(%esp),%eax
  10148f:	83 c4 10             	add    $0x10,%esp
  101492:	83 f8 13             	cmp    $0x13,%eax
  101495:	0f 86 a1 00 00 00    	jbe    10153c <isr_handler+0xfc>
  10149b:	83 ec 0c             	sub    $0xc,%esp
  10149e:	31 db                	xor    %ebx,%ebx
  1014a0:	68 30 38 11 00       	push   $0x113830
  1014a5:	e8 c6 ee ff ff       	call   100370 <terminal_writestring>
  1014aa:	ff 74 24 54          	push   0x54(%esp)
  1014ae:	ff 74 24 54          	push   0x54(%esp)
  1014b2:	ff 74 24 54          	push   0x54(%esp)
  1014b6:	68 54 48 11 00       	push   $0x114854
  1014bb:	e8 50 f1 ff ff       	call   100610 <terminal_printf>
  1014c0:	83 c4 14             	add    $0x14,%esp
  1014c3:	ff 74 24 34          	push   0x34(%esp)
  1014c7:	ff 74 24 3c          	push   0x3c(%esp)
  1014cb:	ff 74 24 38          	push   0x38(%esp)
  1014cf:	ff 74 24 48          	push   0x48(%esp)
  1014d3:	68 78 48 11 00       	push   $0x114878
  1014d8:	e8 33 f1 ff ff       	call   100610 <terminal_printf>
  1014dd:	83 c4 14             	add    $0x14,%esp
  1014e0:	ff 74 24 58          	push   0x58(%esp)
  1014e4:	ff 74 24 58          	push   0x58(%esp)
  1014e8:	ff 74 24 30          	push   0x30(%esp)
  1014ec:	ff 74 24 38          	push   0x38(%esp)
  1014f0:	68 a4 48 11 00       	push   $0x1148a4
  1014f5:	e8 16 f1 ff ff       	call   100610 <terminal_printf>
  1014fa:	83 c4 18             	add    $0x18,%esp
  1014fd:	ff 74 24 28          	push   0x28(%esp)
  101501:	68 48 38 11 00       	push   $0x113848
  101506:	e8 05 f1 ff ff       	call   100610 <terminal_printf>
  10150b:	8b 74 24 30          	mov    0x30(%esp),%esi
  10150f:	83 c4 10             	add    $0x10,%esp
  101512:	8d b6 00 00 00 00    	lea    0x0(%esi),%esi
  101518:	83 ec 04             	sub    $0x4,%esp
  10151b:	ff 34 1e             	push   (%esi,%ebx,1)
  10151e:	53                   	push   %ebx
  10151f:	83 c3 04             	add    $0x4,%ebx
  101522:	68 61 38 11 00       	push   $0x113861
  101527:	e8 e4 f0 ff ff       	call   100610 <terminal_printf>
  10152c:	83 c4 10             	add    $0x10,%esp
  10152f:	83 fb 20             	cmp    $0x20,%ebx
  101532:	75 e4                	jne    101518 <isr_handler+0xd8>
  101534:	8d 74 26 00          	lea    0x0(%esi,%eiz,1),%esi
  101538:	fa                   	cli
  101539:	f4                   	hlt
  10153a:	eb fc                	jmp    101538 <isr_handler+0xf8>
  10153c:	83 ec 0c             	sub    $0xc,%esp
  10153f:	ff 34 85 60 20 11 00 	push   0x112060(,%eax,4)
  101546:	e8 25 ee ff ff       	call   100370 <terminal_writestring>
  10154b:	83 c4 10             	add    $0x10,%esp
  10154e:	e9 48 ff ff ff       	jmp    10149b <isr_handler+0x5b>
  101553:	2e 8d b4 26 00 00 00 	lea    %cs:0x0(%esi,%eiz,1),%esi
  10155a:	00 
  10155b:	2e 8d 74 26 00       	lea    %cs:0x0(%esi,%eiz,1),%esi

00101560 <irq_handler>:
  101560:	83 ec 0c             	sub    $0xc,%esp
  101563:	8b 54 24 34          	mov    0x34(%esp),%edx
  101567:	83 fa 27             	cmp    $0x27,%edx
  10156a:	76 07                	jbe    101573 <irq_handler+0x13>
  10156c:	b8 20 00 00 00       	mov    $0x20,%eax
  101571:	e6 a0                	out    %al,$0xa0
  101573:	b8 20 00 00 00       	mov    $0x20,%eax
  101578:	e6 20                	out    %al,$0x20
  10157a:	8b 04 95 80 f0 11 00 	mov    0x11f080(,%edx,4),%eax
  101581:	85 c0                	test   %eax,%eax
  101583:	74 0d                	je     101592 <irq_handler+0x32>
  101585:	83 ec 0c             	sub    $0xc,%esp
  101588:	8d 54 24 1c          	lea    0x1c(%esp),%edx
  10158c:	52                   	push   %edx
  10158d:	ff d0                	call   *%eax
  10158f:	83 c4 10             	add    $0x10,%esp
  101592:	83 c4 0c             	add    $0xc,%esp
  101595:	c3                   	ret
  101596:	66 90                	xchg   %ax,%ax
  101598:	66 90                	xchg   %ax,%ax
  10159a:	66 90                	xchg   %ax,%ax
  10159c:	66 90                	xchg   %ax,%ax
  10159e:	66 90                	xchg   %ax,%ax

001015a0 <keyboard_callback>:
  1015a0:	e4 60                	in     $0x60,%al
  1015a2:	3c 2a                	cmp    $0x2a,%al
  1015a4:	0f 84 96 00 00 00    	je     101640 <keyboard_callback+0xa0>
  1015aa:	3c 36                	cmp    $0x36,%al
  1015ac:	0f 84 8e 00 00 00    	je     101640 <keyboard_callback+0xa0>
  1015b2:	3c aa                	cmp    $0xaa,%al
  1015b4:	74 7a                	je     101630 <keyboard_callback+0x90>
  1015b6:	3c b6                	cmp    $0xb6,%al
  1015b8:	74 76                	je     101630 <keyboard_callback+0x90>
  1015ba:	3c 1d                	cmp    $0x1d,%al
  1015bc:	0f 84 9e 00 00 00    	je     101660 <keyboard_callback+0xc0>
  1015c2:	3c 9d                	cmp    $0x9d,%al
  1015c4:	0f 84 a6 00 00 00    	je     101670 <keyboard_callback+0xd0>
  1015ca:	84 c0                	test   %al,%al
  1015cc:	0f 88 7e 00 00 00    	js     101650 <keyboard_callback+0xb0>
  1015d2:	53                   	push   %ebx
  1015d3:	83 ec 08             	sub    $0x8,%esp
  1015d6:	3c 49                	cmp    $0x49,%al
  1015d8:	0f 84 b2 00 00 00    	je     101690 <keyboard_callback+0xf0>
  1015de:	3c 51                	cmp    $0x51,%al
  1015e0:	0f 84 c2 00 00 00    	je     1016a8 <keyboard_callback+0x108>
  1015e6:	3c 48                	cmp    $0x48,%al
  1015e8:	0f 84 d2 00 00 00    	je     1016c0 <keyboard_callback+0x120>
  1015ee:	3c 50                	cmp    $0x50,%al
  1015f0:	0f 84 f2 00 00 00    	je     1016e8 <keyboard_callback+0x148>
  1015f6:	3c 39                	cmp    $0x39,%al
  1015f8:	77 5e                	ja     101658 <keyboard_callback+0xb8>
  1015fa:	8b 15 a4 fc 11 00    	mov    0x11fca4,%edx
  101600:	0f b6 c0             	movzbl %al,%eax
  101603:	85 d2                	test   %edx,%edx
  101605:	75 79                	jne    101680 <keyboard_callback+0xe0>
  101607:	0f be 98 00 21 11 00 	movsbl 0x112100(%eax),%ebx
  10160e:	84 db                	test   %bl,%bl
  101610:	74 46                	je     101658 <keyboard_callback+0xb8>
  101612:	a1 a0 fc 11 00       	mov    0x11fca0,%eax
  101617:	85 c0                	test   %eax,%eax
  101619:	0f 84 f1 00 00 00    	je     101710 <keyboard_callback+0x170>
  10161f:	89 5c 24 10          	mov    %ebx,0x10(%esp)
  101623:	83 c4 08             	add    $0x8,%esp
  101626:	5b                   	pop    %ebx
  101627:	e9 84 5a 00 00       	jmp    1070b0 <wm_handle_shortcut>
  10162c:	8d 74 26 00          	lea    0x0(%esi,%eiz,1),%esi
  101630:	c7 05 a4 fc 11 00 00 	movl   $0x0,0x11fca4
  101637:	00 00 00 
  10163a:	c3                   	ret
  10163b:	2e 8d 74 26 00       	lea    %cs:0x0(%esi,%eiz,1),%esi
  101640:	c7 05 a4 fc 11 00 01 	movl   $0x1,0x11fca4
  101647:	00 00 00 
  10164a:	c3                   	ret
  10164b:	2e 8d 74 26 00       	lea    %cs:0x0(%esi,%eiz,1),%esi
  101650:	c3                   	ret
  101651:	8d b4 26 00 00 00 00 	lea    0x0(%esi,%eiz,1),%esi
  101658:	83 c4 08             	add    $0x8,%esp
  10165b:	5b                   	pop    %ebx
  10165c:	c3                   	ret
  10165d:	8d 76 00             	lea    0x0(%esi),%esi
  101660:	c7 05 a0 fc 11 00 01 	movl   $0x1,0x11fca0
  101667:	00 00 00 
  10166a:	c3                   	ret
  10166b:	2e 8d 74 26 00       	lea    %cs:0x0(%esi,%eiz,1),%esi
  101670:	c7 05 a0 fc 11 00 00 	movl   $0x0,0x11fca0
  101677:	00 00 00 
  10167a:	c3                   	ret
  10167b:	2e 8d 74 26 00       	lea    %cs:0x0(%esi,%eiz,1),%esi
  101680:	0f be 98 c0 20 11 00 	movsbl 0x1120c0(%eax),%ebx
  101687:	eb 85                	jmp    10160e <keyboard_callback+0x6e>
  101689:	8d b4 26 00 00 00 00 	lea    0x0(%esi,%eiz,1),%esi
  101690:	c7 44 24 10 11 00 00 	movl   $0x11,0x10(%esp)
  101697:	00 
  101698:	83 c4 08             	add    $0x8,%esp
  10169b:	5b                   	pop    %ebx
  10169c:	e9 0f 5a 00 00       	jmp    1070b0 <wm_handle_shortcut>
  1016a1:	8d b4 26 00 00 00 00 	lea    0x0(%esi,%eiz,1),%esi
  1016a8:	c7 44 24 10 12 00 00 	movl   $0x12,0x10(%esp)
  1016af:	00 
  1016b0:	83 c4 08             	add    $0x8,%esp
  1016b3:	5b                   	pop    %ebx
  1016b4:	e9 f7 59 00 00       	jmp    1070b0 <wm_handle_shortcut>
  1016b9:	8d b4 26 00 00 00 00 	lea    0x0(%esi,%eiz,1),%esi
  1016c0:	83 ec 0c             	sub    $0xc,%esp
  1016c3:	6a 10                	push   $0x10
  1016c5:	e8 36 89 00 00       	call   10a000 <wm_handle_keypress>
  1016ca:	83 c4 10             	add    $0x10,%esp
  1016cd:	85 c0                	test   %eax,%eax
  1016cf:	75 87                	jne    101658 <keyboard_callback+0xb8>
  1016d1:	c7 44 24 10 10 00 00 	movl   $0x10,0x10(%esp)
  1016d8:	00 
  1016d9:	83 c4 08             	add    $0x8,%esp
  1016dc:	5b                   	pop    %ebx
  1016dd:	e9 ee 2a 00 00       	jmp    1041d0 <shell_handle_keypress>
  1016e2:	8d b6 00 00 00 00    	lea    0x0(%esi),%esi
  1016e8:	83 ec 0c             	sub    $0xc,%esp
  1016eb:	6a 11                	push   $0x11
  1016ed:	e8 0e 89 00 00       	call   10a000 <wm_handle_keypress>
  1016f2:	83 c4 10             	add    $0x10,%esp
  1016f5:	85 c0                	test   %eax,%eax
  1016f7:	0f 85 5b ff ff ff    	jne    101658 <keyboard_callback+0xb8>
  1016fd:	c7 44 24 10 11 00 00 	movl   $0x11,0x10(%esp)
  101704:	00 
  101705:	83 c4 08             	add    $0x8,%esp
  101708:	5b                   	pop    %ebx
  101709:	e9 c2 2a 00 00       	jmp    1041d0 <shell_handle_keypress>
  10170e:	66 90                	xchg   %ax,%ax
  101710:	83 ec 0c             	sub    $0xc,%esp
  101713:	53                   	push   %ebx
  101714:	e8 47 8e 00 00       	call   10a560 <snake_handle_input>
  101719:	83 c4 10             	add    $0x10,%esp
  10171c:	85 c0                	test   %eax,%eax
  10171e:	0f 85 34 ff ff ff    	jne    101658 <keyboard_callback+0xb8>
  101724:	83 ec 0c             	sub    $0xc,%esp
  101727:	53                   	push   %ebx
  101728:	e8 d3 88 00 00       	call   10a000 <wm_handle_keypress>
  10172d:	83 c4 10             	add    $0x10,%esp
  101730:	85 c0                	test   %eax,%eax
  101732:	0f 85 20 ff ff ff    	jne    101658 <keyboard_callback+0xb8>
  101738:	89 5c 24 10          	mov    %ebx,0x10(%esp)
  10173c:	83 c4 08             	add    $0x8,%esp
  10173f:	5b                   	pop    %ebx
  101740:	e9 8b 2a 00 00       	jmp    1041d0 <shell_handle_keypress>
  101745:	2e 8d b4 26 00 00 00 	lea    %cs:0x0(%esi,%eiz,1),%esi
  10174c:	00 
  10174d:	8d 76 00             	lea    0x0(%esi),%esi

00101750 <keyboard_init>:
  101750:	83 ec 14             	sub    $0x14,%esp
  101753:	68 a0 15 10 00       	push   $0x1015a0
  101758:	6a 21                	push   $0x21
  10175a:	e8 c1 fc ff ff       	call   101420 <register_interrupt_handler>
  10175f:	83 c4 1c             	add    $0x1c,%esp
  101762:	c3                   	ret
  101763:	66 90                	xchg   %ax,%ax
  101765:	66 90                	xchg   %ax,%ax
  101767:	66 90                	xchg   %ax,%ax
  101769:	66 90                	xchg   %ax,%ax
  10176b:	66 90                	xchg   %ax,%ax
  10176d:	66 90                	xchg   %ax,%ax
  10176f:	90                   	nop

00101770 <utoa.part.0>:
  101770:	55                   	push   %ebp
  101771:	57                   	push   %edi
  101772:	56                   	push   %esi
  101773:	53                   	push   %ebx
  101774:	89 c3                	mov    %eax,%ebx
  101776:	89 d0                	mov    %edx,%eax
  101778:	83 ec 24             	sub    $0x24,%esp
  10177b:	85 db                	test   %ebx,%ebx
  10177d:	74 4d                	je     1017cc <utoa.part.0+0x5c>
  10177f:	89 14 24             	mov    %edx,(%esp)
  101782:	89 cd                	mov    %ecx,%ebp
  101784:	31 f6                	xor    %esi,%esi
  101786:	8d 7c 24 04          	lea    0x4(%esp),%edi
  10178a:	8d b6 00 00 00 00    	lea    0x0(%esi),%esi
  101790:	89 d8                	mov    %ebx,%eax
  101792:	31 d2                	xor    %edx,%edx
  101794:	89 f1                	mov    %esi,%ecx
  101796:	83 c6 01             	add    $0x1,%esi
  101799:	f7 f5                	div    %ebp
  10179b:	0f b6 92 3c 21 11 00 	movzbl 0x11213c(%edx),%edx
  1017a2:	88 54 34 03          	mov    %dl,0x3(%esp,%esi,1)
  1017a6:	89 da                	mov    %ebx,%edx
  1017a8:	89 c3                	mov    %eax,%ebx
  1017aa:	39 ea                	cmp    %ebp,%edx
  1017ac:	73 e2                	jae    101790 <utoa.part.0+0x20>
  1017ae:	8b 04 24             	mov    (%esp),%eax
  1017b1:	01 f9                	add    %edi,%ecx
  1017b3:	89 c3                	mov    %eax,%ebx
  1017b5:	8d 76 00             	lea    0x0(%esi),%esi
  1017b8:	0f b6 11             	movzbl (%ecx),%edx
  1017bb:	83 c3 01             	add    $0x1,%ebx
  1017be:	88 53 ff             	mov    %dl,-0x1(%ebx)
  1017c1:	89 ca                	mov    %ecx,%edx
  1017c3:	83 e9 01             	sub    $0x1,%ecx
  1017c6:	39 fa                	cmp    %edi,%edx
  1017c8:	75 ee                	jne    1017b8 <utoa.part.0+0x48>
  1017ca:	01 f0                	add    %esi,%eax
  1017cc:	c6 00 00             	movb   $0x0,(%eax)
  1017cf:	83 c4 24             	add    $0x24,%esp
  1017d2:	5b                   	pop    %ebx
  1017d3:	5e                   	pop    %esi
  1017d4:	5f                   	pop    %edi
  1017d5:	5d                   	pop    %ebp
  1017d6:	c3                   	ret
  1017d7:	2e 8d b4 26 00 00 00 	lea    %cs:0x0(%esi,%eiz,1),%esi
  1017de:	00 
  1017df:	90                   	nop

001017e0 <memcpy>:
  1017e0:	56                   	push   %esi
  1017e1:	53                   	push   %ebx
  1017e2:	8b 5c 24 14          	mov    0x14(%esp),%ebx
  1017e6:	8b 74 24 0c          	mov    0xc(%esp),%esi
  1017ea:	85 db                	test   %ebx,%ebx
  1017ec:	74 22                	je     101810 <memcpy+0x30>
  1017ee:	8b 44 24 10          	mov    0x10(%esp),%eax
  1017f2:	89 f2                	mov    %esi,%edx
  1017f4:	01 c3                	add    %eax,%ebx
  1017f6:	2e 8d b4 26 00 00 00 	lea    %cs:0x0(%esi,%eiz,1),%esi
  1017fd:	00 
  1017fe:	66 90                	xchg   %ax,%ax
  101800:	0f b6 08             	movzbl (%eax),%ecx
  101803:	83 c0 01             	add    $0x1,%eax
  101806:	83 c2 01             	add    $0x1,%edx
  101809:	88 4a ff             	mov    %cl,-0x1(%edx)
  10180c:	39 d8                	cmp    %ebx,%eax
  10180e:	75 f0                	jne    101800 <memcpy+0x20>
  101810:	89 f0                	mov    %esi,%eax
  101812:	5b                   	pop    %ebx
  101813:	5e                   	pop    %esi
  101814:	c3                   	ret
  101815:	2e 8d b4 26 00 00 00 	lea    %cs:0x0(%esi,%eiz,1),%esi
  10181c:	00 
  10181d:	8d 76 00             	lea    0x0(%esi),%esi

00101820 <memmove>:
  101820:	56                   	push   %esi
  101821:	53                   	push   %ebx
  101822:	8b 5c 24 0c          	mov    0xc(%esp),%ebx
  101826:	8b 54 24 10          	mov    0x10(%esp),%edx
  10182a:	8b 44 24 14          	mov    0x14(%esp),%eax
  10182e:	39 d3                	cmp    %edx,%ebx
  101830:	72 26                	jb     101858 <memmove+0x38>
  101832:	85 c0                	test   %eax,%eax
  101834:	74 16                	je     10184c <memmove+0x2c>
  101836:	2e 8d b4 26 00 00 00 	lea    %cs:0x0(%esi,%eiz,1),%esi
  10183d:	00 
  10183e:	66 90                	xchg   %ax,%ax
  101840:	83 e8 01             	sub    $0x1,%eax
  101843:	0f b6 0c 02          	movzbl (%edx,%eax,1),%ecx
  101847:	88 0c 03             	mov    %cl,(%ebx,%eax,1)
  10184a:	75 f4                	jne    101840 <memmove+0x20>
  10184c:	89 d8                	mov    %ebx,%eax
  10184e:	5b                   	pop    %ebx
  10184f:	5e                   	pop    %esi
  101850:	c3                   	ret
  101851:	8d b4 26 00 00 00 00 	lea    0x0(%esi,%eiz,1),%esi
  101858:	85 c0                	test   %eax,%eax
  10185a:	74 f0                	je     10184c <memmove+0x2c>
  10185c:	89 d9                	mov    %ebx,%ecx
  10185e:	8d 34 10             	lea    (%eax,%edx,1),%esi
  101861:	8d b4 26 00 00 00 00 	lea    0x0(%esi,%eiz,1),%esi
  101868:	0f b6 02             	movzbl (%edx),%eax
  10186b:	83 c2 01             	add    $0x1,%edx
  10186e:	83 c1 01             	add    $0x1,%ecx
  101871:	88 41 ff             	mov    %al,-0x1(%ecx)
  101874:	39 f2                	cmp    %esi,%edx
  101876:	75 f0                	jne    101868 <memmove+0x48>
  101878:	89 d8                	mov    %ebx,%eax
  10187a:	5b                   	pop    %ebx
  10187b:	5e                   	pop    %esi
  10187c:	c3                   	ret
  10187d:	8d 76 00             	lea    0x0(%esi),%esi

00101880 <memset>:
  101880:	56                   	push   %esi
  101881:	53                   	push   %ebx
  101882:	8b 5c 24 0c          	mov    0xc(%esp),%ebx
  101886:	8b 74 24 14          	mov    0x14(%esp),%esi
  10188a:	0f b6 54 24 10       	movzbl 0x10(%esp),%edx
  10188f:	8d 0c 1e             	lea    (%esi,%ebx,1),%ecx
  101892:	85 f6                	test   %esi,%esi
  101894:	74 26                	je     1018bc <memset+0x3c>
  101896:	89 ce                	mov    %ecx,%esi
  101898:	89 d8                	mov    %ebx,%eax
  10189a:	29 de                	sub    %ebx,%esi
  10189c:	83 e6 01             	and    $0x1,%esi
  10189f:	74 0f                	je     1018b0 <memset+0x30>
  1018a1:	0f b6 44 24 10       	movzbl 0x10(%esp),%eax
  1018a6:	88 03                	mov    %al,(%ebx)
  1018a8:	8d 43 01             	lea    0x1(%ebx),%eax
  1018ab:	39 c8                	cmp    %ecx,%eax
  1018ad:	74 0d                	je     1018bc <memset+0x3c>
  1018af:	90                   	nop
  1018b0:	88 10                	mov    %dl,(%eax)
  1018b2:	83 c0 02             	add    $0x2,%eax
  1018b5:	88 50 ff             	mov    %dl,-0x1(%eax)
  1018b8:	39 c8                	cmp    %ecx,%eax
  1018ba:	75 f4                	jne    1018b0 <memset+0x30>
  1018bc:	89 d8                	mov    %ebx,%eax
  1018be:	5b                   	pop    %ebx
  1018bf:	5e                   	pop    %esi
  1018c0:	c3                   	ret
  1018c1:	2e 8d b4 26 00 00 00 	lea    %cs:0x0(%esi,%eiz,1),%esi
  1018c8:	00 
  1018c9:	8d b4 26 00 00 00 00 	lea    0x0(%esi,%eiz,1),%esi

001018d0 <memcmp>:
  1018d0:	56                   	push   %esi
  1018d1:	53                   	push   %ebx
  1018d2:	8b 74 24 14          	mov    0x14(%esp),%esi
  1018d6:	85 f6                	test   %esi,%esi
  1018d8:	74 36                	je     101910 <memcmp+0x40>
  1018da:	8b 44 24 0c          	mov    0xc(%esp),%eax
  1018de:	8b 54 24 10          	mov    0x10(%esp),%edx
  1018e2:	01 c6                	add    %eax,%esi
  1018e4:	eb 14                	jmp    1018fa <memcmp+0x2a>
  1018e6:	2e 8d b4 26 00 00 00 	lea    %cs:0x0(%esi,%eiz,1),%esi
  1018ed:	00 
  1018ee:	66 90                	xchg   %ax,%ax
  1018f0:	83 c0 01             	add    $0x1,%eax
  1018f3:	83 c2 01             	add    $0x1,%edx
  1018f6:	39 f0                	cmp    %esi,%eax
  1018f8:	74 16                	je     101910 <memcmp+0x40>
  1018fa:	0f b6 08             	movzbl (%eax),%ecx
  1018fd:	0f b6 1a             	movzbl (%edx),%ebx
  101900:	38 d9                	cmp    %bl,%cl
  101902:	74 ec                	je     1018f0 <memcmp+0x20>
  101904:	0f b6 c1             	movzbl %cl,%eax
  101907:	29 d8                	sub    %ebx,%eax
  101909:	5b                   	pop    %ebx
  10190a:	5e                   	pop    %esi
  10190b:	c3                   	ret
  10190c:	8d 74 26 00          	lea    0x0(%esi,%eiz,1),%esi
  101910:	31 c0                	xor    %eax,%eax
  101912:	5b                   	pop    %ebx
  101913:	5e                   	pop    %esi
  101914:	c3                   	ret
  101915:	2e 8d b4 26 00 00 00 	lea    %cs:0x0(%esi,%eiz,1),%esi
  10191c:	00 
  10191d:	8d 76 00             	lea    0x0(%esi),%esi

00101920 <strlen>:
  101920:	8b 54 24 04          	mov    0x4(%esp),%edx
  101924:	31 c0                	xor    %eax,%eax
  101926:	80 3a 00             	cmpb   $0x0,(%edx)
  101929:	74 15                	je     101940 <strlen+0x20>
  10192b:	2e 8d 74 26 00       	lea    %cs:0x0(%esi,%eiz,1),%esi
  101930:	83 c0 01             	add    $0x1,%eax
  101933:	80 3c 02 00          	cmpb   $0x0,(%edx,%eax,1)
  101937:	75 f7                	jne    101930 <strlen+0x10>
  101939:	c3                   	ret
  10193a:	8d b6 00 00 00 00    	lea    0x0(%esi),%esi
  101940:	c3                   	ret
  101941:	2e 8d b4 26 00 00 00 	lea    %cs:0x0(%esi,%eiz,1),%esi
  101948:	00 
  101949:	8d b4 26 00 00 00 00 	lea    0x0(%esi,%eiz,1),%esi

00101950 <strcmp>:
  101950:	8b 4c 24 04          	mov    0x4(%esp),%ecx
  101954:	8b 54 24 08          	mov    0x8(%esp),%edx
  101958:	0f b6 01             	movzbl (%ecx),%eax
  10195b:	84 c0                	test   %al,%al
  10195d:	75 17                	jne    101976 <strcmp+0x26>
  10195f:	eb 1f                	jmp    101980 <strcmp+0x30>
  101961:	8d b4 26 00 00 00 00 	lea    0x0(%esi,%eiz,1),%esi
  101968:	0f b6 41 01          	movzbl 0x1(%ecx),%eax
  10196c:	83 c1 01             	add    $0x1,%ecx
  10196f:	83 c2 01             	add    $0x1,%edx
  101972:	84 c0                	test   %al,%al
  101974:	74 0a                	je     101980 <strcmp+0x30>
  101976:	38 02                	cmp    %al,(%edx)
  101978:	74 ee                	je     101968 <strcmp+0x18>
  10197a:	0f b6 12             	movzbl (%edx),%edx
  10197d:	29 d0                	sub    %edx,%eax
  10197f:	c3                   	ret
  101980:	0f b6 12             	movzbl (%edx),%edx
  101983:	31 c0                	xor    %eax,%eax
  101985:	29 d0                	sub    %edx,%eax
  101987:	c3                   	ret
  101988:	2e 8d b4 26 00 00 00 	lea    %cs:0x0(%esi,%eiz,1),%esi
  10198f:	00 

00101990 <strncmp>:
  101990:	56                   	push   %esi
  101991:	53                   	push   %ebx
  101992:	8b 74 24 14          	mov    0x14(%esp),%esi
  101996:	8b 44 24 0c          	mov    0xc(%esp),%eax
  10199a:	8b 4c 24 10          	mov    0x10(%esp),%ecx
  10199e:	85 f6                	test   %esi,%esi
  1019a0:	74 2e                	je     1019d0 <strncmp+0x40>
  1019a2:	01 c6                	add    %eax,%esi
  1019a4:	eb 18                	jmp    1019be <strncmp+0x2e>
  1019a6:	2e 8d b4 26 00 00 00 	lea    %cs:0x0(%esi,%eiz,1),%esi
  1019ad:	00 
  1019ae:	66 90                	xchg   %ax,%ax
  1019b0:	84 d2                	test   %dl,%dl
  1019b2:	74 1c                	je     1019d0 <strncmp+0x40>
  1019b4:	83 c0 01             	add    $0x1,%eax
  1019b7:	83 c1 01             	add    $0x1,%ecx
  1019ba:	39 f0                	cmp    %esi,%eax
  1019bc:	74 12                	je     1019d0 <strncmp+0x40>
  1019be:	0f b6 10             	movzbl (%eax),%edx
  1019c1:	0f b6 19             	movzbl (%ecx),%ebx
  1019c4:	38 da                	cmp    %bl,%dl
  1019c6:	74 e8                	je     1019b0 <strncmp+0x20>
  1019c8:	0f b6 c2             	movzbl %dl,%eax
  1019cb:	29 d8                	sub    %ebx,%eax
  1019cd:	5b                   	pop    %ebx
  1019ce:	5e                   	pop    %esi
  1019cf:	c3                   	ret
  1019d0:	31 c0                	xor    %eax,%eax
  1019d2:	5b                   	pop    %ebx
  1019d3:	5e                   	pop    %esi
  1019d4:	c3                   	ret
  1019d5:	2e 8d b4 26 00 00 00 	lea    %cs:0x0(%esi,%eiz,1),%esi
  1019dc:	00 
  1019dd:	8d 76 00             	lea    0x0(%esi),%esi

001019e0 <strstr>:
  1019e0:	55                   	push   %ebp
  1019e1:	57                   	push   %edi
  1019e2:	56                   	push   %esi
  1019e3:	53                   	push   %ebx
  1019e4:	8b 6c 24 18          	mov    0x18(%esp),%ebp
  1019e8:	8b 74 24 14          	mov    0x14(%esp),%esi
  1019ec:	0f b6 7d 00          	movzbl 0x0(%ebp),%edi
  1019f0:	89 f0                	mov    %esi,%eax
  1019f2:	89 f9                	mov    %edi,%ecx
  1019f4:	84 c9                	test   %cl,%cl
  1019f6:	74 33                	je     101a2b <strstr+0x4b>
  1019f8:	80 3e 00             	cmpb   $0x0,(%esi)
  1019fb:	74 3f                	je     101a3c <strstr+0x5c>
  1019fd:	8d 76 00             	lea    0x0(%esi),%esi
  101a00:	0f b6 16             	movzbl (%esi),%edx
  101a03:	89 f8                	mov    %edi,%eax
  101a05:	89 eb                	mov    %ebp,%ebx
  101a07:	89 f1                	mov    %esi,%ecx
  101a09:	84 d2                	test   %dl,%dl
  101a0b:	75 18                	jne    101a25 <strstr+0x45>
  101a0d:	eb 25                	jmp    101a34 <strstr+0x54>
  101a0f:	90                   	nop
  101a10:	38 c2                	cmp    %al,%dl
  101a12:	75 1c                	jne    101a30 <strstr+0x50>
  101a14:	0f b6 51 01          	movzbl 0x1(%ecx),%edx
  101a18:	83 c1 01             	add    $0x1,%ecx
  101a1b:	83 c3 01             	add    $0x1,%ebx
  101a1e:	0f b6 03             	movzbl (%ebx),%eax
  101a21:	84 d2                	test   %dl,%dl
  101a23:	74 0b                	je     101a30 <strstr+0x50>
  101a25:	84 c0                	test   %al,%al
  101a27:	75 e7                	jne    101a10 <strstr+0x30>
  101a29:	89 f0                	mov    %esi,%eax
  101a2b:	5b                   	pop    %ebx
  101a2c:	5e                   	pop    %esi
  101a2d:	5f                   	pop    %edi
  101a2e:	5d                   	pop    %ebp
  101a2f:	c3                   	ret
  101a30:	84 c0                	test   %al,%al
  101a32:	74 f5                	je     101a29 <strstr+0x49>
  101a34:	83 c6 01             	add    $0x1,%esi
  101a37:	80 3e 00             	cmpb   $0x0,(%esi)
  101a3a:	75 c4                	jne    101a00 <strstr+0x20>
  101a3c:	5b                   	pop    %ebx
  101a3d:	31 c0                	xor    %eax,%eax
  101a3f:	5e                   	pop    %esi
  101a40:	5f                   	pop    %edi
  101a41:	5d                   	pop    %ebp
  101a42:	c3                   	ret
  101a43:	2e 8d b4 26 00 00 00 	lea    %cs:0x0(%esi,%eiz,1),%esi
  101a4a:	00 
  101a4b:	2e 8d 74 26 00       	lea    %cs:0x0(%esi,%eiz,1),%esi

00101a50 <strcpy>:
  101a50:	53                   	push   %ebx
  101a51:	8b 4c 24 08          	mov    0x8(%esp),%ecx
  101a55:	31 c0                	xor    %eax,%eax
  101a57:	8b 5c 24 0c          	mov    0xc(%esp),%ebx
  101a5b:	2e 8d 74 26 00       	lea    %cs:0x0(%esi,%eiz,1),%esi
  101a60:	0f b6 14 03          	movzbl (%ebx,%eax,1),%edx
  101a64:	88 14 01             	mov    %dl,(%ecx,%eax,1)
  101a67:	83 c0 01             	add    $0x1,%eax
  101a6a:	84 d2                	test   %dl,%dl
  101a6c:	75 f2                	jne    101a60 <strcpy+0x10>
  101a6e:	89 c8                	mov    %ecx,%eax
  101a70:	5b                   	pop    %ebx
  101a71:	c3                   	ret
  101a72:	2e 8d b4 26 00 00 00 	lea    %cs:0x0(%esi,%eiz,1),%esi
  101a79:	00 
  101a7a:	8d b6 00 00 00 00    	lea    0x0(%esi),%esi

00101a80 <strncpy>:
  101a80:	56                   	push   %esi
  101a81:	31 c0                	xor    %eax,%eax
  101a83:	53                   	push   %ebx
  101a84:	8b 4c 24 14          	mov    0x14(%esp),%ecx
  101a88:	8b 5c 24 0c          	mov    0xc(%esp),%ebx
  101a8c:	8b 74 24 10          	mov    0x10(%esp),%esi
  101a90:	85 c9                	test   %ecx,%ecx
  101a92:	75 16                	jne    101aaa <strncpy+0x2a>
  101a94:	eb 48                	jmp    101ade <strncpy+0x5e>
  101a96:	2e 8d b4 26 00 00 00 	lea    %cs:0x0(%esi,%eiz,1),%esi
  101a9d:	00 
  101a9e:	66 90                	xchg   %ax,%ax
  101aa0:	88 14 03             	mov    %dl,(%ebx,%eax,1)
  101aa3:	83 c0 01             	add    $0x1,%eax
  101aa6:	39 c1                	cmp    %eax,%ecx
  101aa8:	74 34                	je     101ade <strncpy+0x5e>
  101aaa:	0f b6 14 06          	movzbl (%esi,%eax,1),%edx
  101aae:	84 d2                	test   %dl,%dl
  101ab0:	75 ee                	jne    101aa0 <strncpy+0x20>
  101ab2:	39 c8                	cmp    %ecx,%eax
  101ab4:	73 28                	jae    101ade <strncpy+0x5e>
  101ab6:	01 d9                	add    %ebx,%ecx
  101ab8:	01 d8                	add    %ebx,%eax
  101aba:	89 ca                	mov    %ecx,%edx
  101abc:	29 c2                	sub    %eax,%edx
  101abe:	83 e2 01             	and    $0x1,%edx
  101ac1:	74 0d                	je     101ad0 <strncpy+0x50>
  101ac3:	c6 00 00             	movb   $0x0,(%eax)
  101ac6:	83 c0 01             	add    $0x1,%eax
  101ac9:	39 c8                	cmp    %ecx,%eax
  101acb:	74 11                	je     101ade <strncpy+0x5e>
  101acd:	8d 76 00             	lea    0x0(%esi),%esi
  101ad0:	c6 00 00             	movb   $0x0,(%eax)
  101ad3:	83 c0 02             	add    $0x2,%eax
  101ad6:	c6 40 ff 00          	movb   $0x0,-0x1(%eax)
  101ada:	39 c8                	cmp    %ecx,%eax
  101adc:	75 f2                	jne    101ad0 <strncpy+0x50>
  101ade:	89 d8                	mov    %ebx,%eax
  101ae0:	5b                   	pop    %ebx
  101ae1:	5e                   	pop    %esi
  101ae2:	c3                   	ret
  101ae3:	2e 8d b4 26 00 00 00 	lea    %cs:0x0(%esi,%eiz,1),%esi
  101aea:	00 
  101aeb:	2e 8d 74 26 00       	lea    %cs:0x0(%esi,%eiz,1),%esi

00101af0 <strcat>:
  101af0:	56                   	push   %esi
  101af1:	53                   	push   %ebx
  101af2:	8b 74 24 0c          	mov    0xc(%esp),%esi
  101af6:	8b 5c 24 10          	mov    0x10(%esp),%ebx
  101afa:	80 3e 00             	cmpb   $0x0,(%esi)
  101afd:	89 f2                	mov    %esi,%edx
  101aff:	74 0f                	je     101b10 <strcat+0x20>
  101b01:	8d b4 26 00 00 00 00 	lea    0x0(%esi,%eiz,1),%esi
  101b08:	83 c2 01             	add    $0x1,%edx
  101b0b:	80 3a 00             	cmpb   $0x0,(%edx)
  101b0e:	75 f8                	jne    101b08 <strcat+0x18>
  101b10:	31 c0                	xor    %eax,%eax
  101b12:	8d b6 00 00 00 00    	lea    0x0(%esi),%esi
  101b18:	0f b6 0c 03          	movzbl (%ebx,%eax,1),%ecx
  101b1c:	88 0c 02             	mov    %cl,(%edx,%eax,1)
  101b1f:	83 c0 01             	add    $0x1,%eax
  101b22:	84 c9                	test   %cl,%cl
  101b24:	75 f2                	jne    101b18 <strcat+0x28>
  101b26:	89 f0                	mov    %esi,%eax
  101b28:	5b                   	pop    %ebx
  101b29:	5e                   	pop    %esi
  101b2a:	c3                   	ret
  101b2b:	2e 8d 74 26 00       	lea    %cs:0x0(%esi,%eiz,1),%esi

00101b30 <strncat>:
  101b30:	56                   	push   %esi
  101b31:	53                   	push   %ebx
  101b32:	8b 74 24 0c          	mov    0xc(%esp),%esi
  101b36:	8b 54 24 10          	mov    0x10(%esp),%edx
  101b3a:	8b 5c 24 14          	mov    0x14(%esp),%ebx
  101b3e:	80 3e 00             	cmpb   $0x0,(%esi)
  101b41:	89 f0                	mov    %esi,%eax
  101b43:	74 0b                	je     101b50 <strncat+0x20>
  101b45:	8d 76 00             	lea    0x0(%esi),%esi
  101b48:	83 c0 01             	add    $0x1,%eax
  101b4b:	80 38 00             	cmpb   $0x0,(%eax)
  101b4e:	75 f8                	jne    101b48 <strncat+0x18>
  101b50:	85 db                	test   %ebx,%ebx
  101b52:	74 20                	je     101b74 <strncat+0x44>
  101b54:	01 d3                	add    %edx,%ebx
  101b56:	eb 15                	jmp    101b6d <strncat+0x3d>
  101b58:	2e 8d b4 26 00 00 00 	lea    %cs:0x0(%esi,%eiz,1),%esi
  101b5f:	00 
  101b60:	83 c2 01             	add    $0x1,%edx
  101b63:	83 c0 01             	add    $0x1,%eax
  101b66:	88 48 ff             	mov    %cl,-0x1(%eax)
  101b69:	39 d3                	cmp    %edx,%ebx
  101b6b:	74 07                	je     101b74 <strncat+0x44>
  101b6d:	0f b6 0a             	movzbl (%edx),%ecx
  101b70:	84 c9                	test   %cl,%cl
  101b72:	75 ec                	jne    101b60 <strncat+0x30>
  101b74:	c6 00 00             	movb   $0x0,(%eax)
  101b77:	89 f0                	mov    %esi,%eax
  101b79:	5b                   	pop    %ebx
  101b7a:	5e                   	pop    %esi
  101b7b:	c3                   	ret
  101b7c:	8d 74 26 00          	lea    0x0(%esi,%eiz,1),%esi

00101b80 <strtol>:
  101b80:	55                   	push   %ebp
  101b81:	57                   	push   %edi
  101b82:	56                   	push   %esi
  101b83:	53                   	push   %ebx
  101b84:	83 ec 04             	sub    $0x4,%esp
  101b87:	8b 4c 24 18          	mov    0x18(%esp),%ecx
  101b8b:	8b 7c 24 1c          	mov    0x1c(%esp),%edi
  101b8f:	8b 74 24 20          	mov    0x20(%esp),%esi
  101b93:	0f b6 11             	movzbl (%ecx),%edx
  101b96:	80 fa 20             	cmp    $0x20,%dl
  101b99:	75 11                	jne    101bac <strtol+0x2c>
  101b9b:	2e 8d 74 26 00       	lea    %cs:0x0(%esi,%eiz,1),%esi
  101ba0:	0f b6 51 01          	movzbl 0x1(%ecx),%edx
  101ba4:	83 c1 01             	add    $0x1,%ecx
  101ba7:	80 fa 20             	cmp    $0x20,%dl
  101baa:	74 f4                	je     101ba0 <strtol+0x20>
  101bac:	80 fa 09             	cmp    $0x9,%dl
  101baf:	74 ef                	je     101ba0 <strtol+0x20>
  101bb1:	80 fa 2d             	cmp    $0x2d,%dl
  101bb4:	0f 84 be 00 00 00    	je     101c78 <strtol+0xf8>
  101bba:	80 fa 2b             	cmp    $0x2b,%dl
  101bbd:	c7 04 24 01 00 00 00 	movl   $0x1,(%esp)
  101bc4:	0f 94 c2             	sete   %dl
  101bc7:	0f b6 d2             	movzbl %dl,%edx
  101bca:	01 d1                	add    %edx,%ecx
  101bcc:	0f be 11             	movsbl (%ecx),%edx
  101bcf:	85 f6                	test   %esi,%esi
  101bd1:	75 7d                	jne    101c50 <strtol+0xd0>
  101bd3:	be 0a 00 00 00       	mov    $0xa,%esi
  101bd8:	80 fa 30             	cmp    $0x30,%dl
  101bdb:	0f 84 af 00 00 00    	je     101c90 <strtol+0x110>
  101be1:	84 d2                	test   %dl,%dl
  101be3:	0f 84 d6 00 00 00    	je     101cbf <strtol+0x13f>
  101be9:	31 db                	xor    %ebx,%ebx
  101beb:	eb 19                	jmp    101c06 <strtol+0x86>
  101bed:	8d 76 00             	lea    0x0(%esi),%esi
  101bf0:	83 ea 30             	sub    $0x30,%edx
  101bf3:	39 d6                	cmp    %edx,%esi
  101bf5:	7e 29                	jle    101c20 <strtol+0xa0>
  101bf7:	0f af de             	imul   %esi,%ebx
  101bfa:	83 c1 01             	add    $0x1,%ecx
  101bfd:	01 d3                	add    %edx,%ebx
  101bff:	0f be 11             	movsbl (%ecx),%edx
  101c02:	84 d2                	test   %dl,%dl
  101c04:	74 1a                	je     101c20 <strtol+0xa0>
  101c06:	8d 42 d0             	lea    -0x30(%edx),%eax
  101c09:	3c 09                	cmp    $0x9,%al
  101c0b:	76 e3                	jbe    101bf0 <strtol+0x70>
  101c0d:	8d 6a 9f             	lea    -0x61(%edx),%ebp
  101c10:	89 e8                	mov    %ebp,%eax
  101c12:	3c 19                	cmp    $0x19,%al
  101c14:	77 22                	ja     101c38 <strtol+0xb8>
  101c16:	83 ea 57             	sub    $0x57,%edx
  101c19:	39 d6                	cmp    %edx,%esi
  101c1b:	7f da                	jg     101bf7 <strtol+0x77>
  101c1d:	8d 76 00             	lea    0x0(%esi),%esi
  101c20:	8b 04 24             	mov    (%esp),%eax
  101c23:	0f af c3             	imul   %ebx,%eax
  101c26:	85 ff                	test   %edi,%edi
  101c28:	74 02                	je     101c2c <strtol+0xac>
  101c2a:	89 0f                	mov    %ecx,(%edi)
  101c2c:	83 c4 04             	add    $0x4,%esp
  101c2f:	5b                   	pop    %ebx
  101c30:	5e                   	pop    %esi
  101c31:	5f                   	pop    %edi
  101c32:	5d                   	pop    %ebp
  101c33:	c3                   	ret
  101c34:	8d 74 26 00          	lea    0x0(%esi,%eiz,1),%esi
  101c38:	8d 6a bf             	lea    -0x41(%edx),%ebp
  101c3b:	89 e8                	mov    %ebp,%eax
  101c3d:	3c 19                	cmp    $0x19,%al
  101c3f:	77 df                	ja     101c20 <strtol+0xa0>
  101c41:	83 ea 37             	sub    $0x37,%edx
  101c44:	eb ad                	jmp    101bf3 <strtol+0x73>
  101c46:	2e 8d b4 26 00 00 00 	lea    %cs:0x0(%esi,%eiz,1),%esi
  101c4d:	00 
  101c4e:	66 90                	xchg   %ax,%ax
  101c50:	83 fe 10             	cmp    $0x10,%esi
  101c53:	75 8c                	jne    101be1 <strtol+0x61>
  101c55:	80 fa 30             	cmp    $0x30,%dl
  101c58:	75 87                	jne    101be1 <strtol+0x61>
  101c5a:	0f b6 59 01          	movzbl 0x1(%ecx),%ebx
  101c5e:	83 e3 df             	and    $0xffffffdf,%ebx
  101c61:	80 fb 58             	cmp    $0x58,%bl
  101c64:	75 83                	jne    101be9 <strtol+0x69>
  101c66:	0f be 51 02          	movsbl 0x2(%ecx),%edx
  101c6a:	83 c1 02             	add    $0x2,%ecx
  101c6d:	e9 6f ff ff ff       	jmp    101be1 <strtol+0x61>
  101c72:	8d b6 00 00 00 00    	lea    0x0(%esi),%esi
  101c78:	c7 04 24 ff ff ff ff 	movl   $0xffffffff,(%esp)
  101c7f:	83 c1 01             	add    $0x1,%ecx
  101c82:	e9 45 ff ff ff       	jmp    101bcc <strtol+0x4c>
  101c87:	2e 8d b4 26 00 00 00 	lea    %cs:0x0(%esi,%eiz,1),%esi
  101c8e:	00 
  101c8f:	90                   	nop
  101c90:	0f be 51 01          	movsbl 0x1(%ecx),%edx
  101c94:	89 d3                	mov    %edx,%ebx
  101c96:	83 e3 df             	and    $0xffffffdf,%ebx
  101c99:	80 fb 58             	cmp    $0x58,%bl
  101c9c:	75 11                	jne    101caf <strtol+0x12f>
  101c9e:	0f be 51 02          	movsbl 0x2(%ecx),%edx
  101ca2:	be 10 00 00 00       	mov    $0x10,%esi
  101ca7:	83 c1 02             	add    $0x2,%ecx
  101caa:	e9 32 ff ff ff       	jmp    101be1 <strtol+0x61>
  101caf:	83 c1 01             	add    $0x1,%ecx
  101cb2:	be 08 00 00 00       	mov    $0x8,%esi
  101cb7:	84 d2                	test   %dl,%dl
  101cb9:	0f 85 2a ff ff ff    	jne    101be9 <strtol+0x69>
  101cbf:	31 c0                	xor    %eax,%eax
  101cc1:	e9 60 ff ff ff       	jmp    101c26 <strtol+0xa6>
  101cc6:	2e 8d b4 26 00 00 00 	lea    %cs:0x0(%esi,%eiz,1),%esi
  101ccd:	00 
  101cce:	66 90                	xchg   %ax,%ax

00101cd0 <utoa>:
  101cd0:	53                   	push   %ebx
  101cd1:	8b 44 24 08          	mov    0x8(%esp),%eax
  101cd5:	8b 5c 24 0c          	mov    0xc(%esp),%ebx
  101cd9:	85 c0                	test   %eax,%eax
  101cdb:	74 13                	je     101cf0 <utoa+0x20>
  101cdd:	8b 4c 24 10          	mov    0x10(%esp),%ecx
  101ce1:	89 da                	mov    %ebx,%edx
  101ce3:	e8 88 fa ff ff       	call   101770 <utoa.part.0>
  101ce8:	89 d8                	mov    %ebx,%eax
  101cea:	5b                   	pop    %ebx
  101ceb:	c3                   	ret
  101cec:	8d 74 26 00          	lea    0x0(%esi,%eiz,1),%esi
  101cf0:	b8 30 00 00 00       	mov    $0x30,%eax
  101cf5:	66 89 03             	mov    %ax,(%ebx)
  101cf8:	89 d8                	mov    %ebx,%eax
  101cfa:	5b                   	pop    %ebx
  101cfb:	c3                   	ret
  101cfc:	8d 74 26 00          	lea    0x0(%esi,%eiz,1),%esi

00101d00 <itoa>:
  101d00:	53                   	push   %ebx
  101d01:	8b 4c 24 10          	mov    0x10(%esp),%ecx
  101d05:	8b 44 24 08          	mov    0x8(%esp),%eax
  101d09:	8b 5c 24 0c          	mov    0xc(%esp),%ebx
  101d0d:	83 f9 0a             	cmp    $0xa,%ecx
  101d10:	75 04                	jne    101d16 <itoa+0x16>
  101d12:	85 c0                	test   %eax,%eax
  101d14:	78 12                	js     101d28 <itoa+0x28>
  101d16:	85 c0                	test   %eax,%eax
  101d18:	74 26                	je     101d40 <itoa+0x40>
  101d1a:	89 da                	mov    %ebx,%edx
  101d1c:	e8 4f fa ff ff       	call   101770 <utoa.part.0>
  101d21:	89 d8                	mov    %ebx,%eax
  101d23:	5b                   	pop    %ebx
  101d24:	c3                   	ret
  101d25:	8d 76 00             	lea    0x0(%esi),%esi
  101d28:	c6 03 2d             	movb   $0x2d,(%ebx)
  101d2b:	8d 53 01             	lea    0x1(%ebx),%edx
  101d2e:	f7 d8                	neg    %eax
  101d30:	e8 3b fa ff ff       	call   101770 <utoa.part.0>
  101d35:	89 d8                	mov    %ebx,%eax
  101d37:	5b                   	pop    %ebx
  101d38:	c3                   	ret
  101d39:	8d b4 26 00 00 00 00 	lea    0x0(%esi,%eiz,1),%esi
  101d40:	b8 30 00 00 00       	mov    $0x30,%eax
  101d45:	66 89 03             	mov    %ax,(%ebx)
  101d48:	89 d8                	mov    %ebx,%eax
  101d4a:	5b                   	pop    %ebx
  101d4b:	c3                   	ret
  101d4c:	66 90                	xchg   %ax,%ax
  101d4e:	66 90                	xchg   %ax,%ax

00101d50 <_uint_to_buf>:
  101d50:	55                   	push   %ebp
  101d51:	57                   	push   %edi
  101d52:	56                   	push   %esi
  101d53:	89 c6                	mov    %eax,%esi
  101d55:	53                   	push   %ebx
  101d56:	89 d3                	mov    %edx,%ebx
  101d58:	ba b6 39 11 00       	mov    $0x1139b6,%edx
  101d5d:	83 ec 04             	sub    $0x4,%esp
  101d60:	8b 44 24 18          	mov    0x18(%esp),%eax
  101d64:	85 c0                	test   %eax,%eax
  101d66:	b8 a5 39 11 00       	mov    $0x1139a5,%eax
  101d6b:	0f 44 c2             	cmove  %edx,%eax
  101d6e:	85 f6                	test   %esi,%esi
  101d70:	74 5e                	je     101dd0 <_uint_to_buf+0x80>
  101d72:	89 cd                	mov    %ecx,%ebp
  101d74:	31 ff                	xor    %edi,%edi
  101d76:	89 c1                	mov    %eax,%ecx
  101d78:	2e 8d b4 26 00 00 00 	lea    %cs:0x0(%esi,%eiz,1),%esi
  101d7f:	00 
  101d80:	89 f0                	mov    %esi,%eax
  101d82:	31 d2                	xor    %edx,%edx
  101d84:	89 3c 24             	mov    %edi,(%esp)
  101d87:	83 c7 01             	add    $0x1,%edi
  101d8a:	f7 f5                	div    %ebp
  101d8c:	0f b6 14 11          	movzbl (%ecx,%edx,1),%edx
  101d90:	88 54 3b ff          	mov    %dl,-0x1(%ebx,%edi,1)
  101d94:	89 f2                	mov    %esi,%edx
  101d96:	89 c6                	mov    %eax,%esi
  101d98:	39 ea                	cmp    %ebp,%edx
  101d9a:	73 e4                	jae    101d80 <_uint_to_buf+0x30>
  101d9c:	8b 0c 24             	mov    (%esp),%ecx
  101d9f:	85 c9                	test   %ecx,%ecx
  101da1:	74 1f                	je     101dc2 <_uint_to_buf+0x72>
  101da3:	31 d2                	xor    %edx,%edx
  101da5:	8d 76 00             	lea    0x0(%esi),%esi
  101da8:	0f b6 34 13          	movzbl (%ebx,%edx,1),%esi
  101dac:	0f b6 04 0b          	movzbl (%ebx,%ecx,1),%eax
  101db0:	88 04 13             	mov    %al,(%ebx,%edx,1)
  101db3:	89 f0                	mov    %esi,%eax
  101db5:	83 c2 01             	add    $0x1,%edx
  101db8:	88 04 0b             	mov    %al,(%ebx,%ecx,1)
  101dbb:	83 e9 01             	sub    $0x1,%ecx
  101dbe:	39 ca                	cmp    %ecx,%edx
  101dc0:	7c e6                	jl     101da8 <_uint_to_buf+0x58>
  101dc2:	83 c4 04             	add    $0x4,%esp
  101dc5:	89 f8                	mov    %edi,%eax
  101dc7:	5b                   	pop    %ebx
  101dc8:	5e                   	pop    %esi
  101dc9:	5f                   	pop    %edi
  101dca:	5d                   	pop    %ebp
  101dcb:	c3                   	ret
  101dcc:	8d 74 26 00          	lea    0x0(%esi,%eiz,1),%esi
  101dd0:	c6 03 30             	movb   $0x30,(%ebx)
  101dd3:	bf 01 00 00 00       	mov    $0x1,%edi
  101dd8:	83 c4 04             	add    $0x4,%esp
  101ddb:	5b                   	pop    %ebx
  101ddc:	89 f8                	mov    %edi,%eax
  101dde:	5e                   	pop    %esi
  101ddf:	5f                   	pop    %edi
  101de0:	5d                   	pop    %ebp
  101de1:	c3                   	ret
  101de2:	2e 8d b4 26 00 00 00 	lea    %cs:0x0(%esi,%eiz,1),%esi
  101de9:	00 
  101dea:	8d b6 00 00 00 00    	lea    0x0(%esi),%esi

00101df0 <vsnprintf>:
  101df0:	55                   	push   %ebp
  101df1:	57                   	push   %edi
  101df2:	56                   	push   %esi
  101df3:	53                   	push   %ebx
  101df4:	83 ec 4c             	sub    $0x4c,%esp
  101df7:	8b 5c 24 68          	mov    0x68(%esp),%ebx
  101dfb:	8b 7c 24 64          	mov    0x64(%esp),%edi
  101dff:	0f b6 03             	movzbl (%ebx),%eax
  101e02:	84 c0                	test   %al,%al
  101e04:	0f 84 9c 05 00 00    	je     1023a6 <vsnprintf+0x5b6>
  101e0a:	31 ed                	xor    %ebp,%ebp
  101e0c:	8d 74 26 00          	lea    0x0(%esi,%eiz,1),%esi
  101e10:	3c 25                	cmp    $0x25,%al
  101e12:	74 5c                	je     101e70 <vsnprintf+0x80>
  101e14:	8d 55 01             	lea    0x1(%ebp),%edx
  101e17:	3b 54 24 64          	cmp    0x64(%esp),%edx
  101e1b:	72 43                	jb     101e60 <vsnprintf+0x70>
  101e1d:	89 d5                	mov    %edx,%ebp
  101e1f:	0f b6 03             	movzbl (%ebx),%eax
  101e22:	84 c0                	test   %al,%al
  101e24:	75 ea                	jne    101e10 <vsnprintf+0x20>
  101e26:	8b 7c 24 64          	mov    0x64(%esp),%edi
  101e2a:	89 e8                	mov    %ebp,%eax
  101e2c:	85 ff                	test   %edi,%edi
  101e2e:	74 1e                	je     101e4e <vsnprintf+0x5e>
  101e30:	8b 54 24 60          	mov    0x60(%esp),%edx
  101e34:	8b 74 24 60          	mov    0x60(%esp),%esi
  101e38:	01 ea                	add    %ebp,%edx
  101e3a:	8d 4c 3e ff          	lea    -0x1(%esi,%edi,1),%ecx
  101e3e:	39 fd                	cmp    %edi,%ebp
  101e40:	0f 43 d1             	cmovae %ecx,%edx
  101e43:	89 54 24 60          	mov    %edx,0x60(%esp)
  101e47:	8b 74 24 60          	mov    0x60(%esp),%esi
  101e4b:	c6 06 00             	movb   $0x0,(%esi)
  101e4e:	83 c4 4c             	add    $0x4c,%esp
  101e51:	5b                   	pop    %ebx
  101e52:	5e                   	pop    %esi
  101e53:	5f                   	pop    %edi
  101e54:	5d                   	pop    %ebp
  101e55:	c3                   	ret
  101e56:	2e 8d b4 26 00 00 00 	lea    %cs:0x0(%esi,%eiz,1),%esi
  101e5d:	00 
  101e5e:	66 90                	xchg   %ax,%ax
  101e60:	8b 74 24 60          	mov    0x60(%esp),%esi
  101e64:	83 c3 01             	add    $0x1,%ebx
  101e67:	88 04 2e             	mov    %al,(%esi,%ebp,1)
  101e6a:	eb b1                	jmp    101e1d <vsnprintf+0x2d>
  101e6c:	8d 74 26 00          	lea    0x0(%esi,%eiz,1),%esi
  101e70:	c7 44 24 0c 00 00 00 	movl   $0x0,0xc(%esp)
  101e77:	00 
  101e78:	83 c3 01             	add    $0x1,%ebx
  101e7b:	c7 44 24 08 00 00 00 	movl   $0x0,0x8(%esp)
  101e82:	00 
  101e83:	2e 8d 74 26 00       	lea    %cs:0x0(%esi,%eiz,1),%esi
  101e88:	0f b6 03             	movzbl (%ebx),%eax
  101e8b:	8d 53 01             	lea    0x1(%ebx),%edx
  101e8e:	8d 48 e0             	lea    -0x20(%eax),%ecx
  101e91:	80 f9 10             	cmp    $0x10,%cl
  101e94:	77 0a                	ja     101ea0 <vsnprintf+0xb0>
  101e96:	0f b6 c9             	movzbl %cl,%ecx
  101e99:	ff 24 8d 50 21 11 00 	jmp    *0x112150(,%ecx,4)
  101ea0:	3c 2a                	cmp    $0x2a,%al
  101ea2:	0f 85 88 00 00 00    	jne    101f30 <vsnprintf+0x140>
  101ea8:	8b 7c 24 6c          	mov    0x6c(%esp),%edi
  101eac:	8b 44 24 6c          	mov    0x6c(%esp),%eax
  101eb0:	83 c7 04             	add    $0x4,%edi
  101eb3:	8b 30                	mov    (%eax),%esi
  101eb5:	0f b6 43 01          	movzbl 0x1(%ebx),%eax
  101eb9:	89 d3                	mov    %edx,%ebx
  101ebb:	89 7c 24 6c          	mov    %edi,0x6c(%esp)
  101ebf:	bf ff ff ff ff       	mov    $0xffffffff,%edi
  101ec4:	3c 2e                	cmp    $0x2e,%al
  101ec6:	0f 84 9d 00 00 00    	je     101f69 <vsnprintf+0x179>
  101ecc:	8b 54 24 08          	mov    0x8(%esp),%edx
  101ed0:	8b 4c 24 0c          	mov    0xc(%esp),%ecx
  101ed4:	83 f2 01             	xor    $0x1,%edx
  101ed7:	21 ca                	and    %ecx,%edx
  101ed9:	83 fa 01             	cmp    $0x1,%edx
  101edc:	19 c9                	sbb    %ecx,%ecx
  101ede:	83 e1 f0             	and    $0xfffffff0,%ecx
  101ee1:	83 c1 30             	add    $0x30,%ecx
  101ee4:	88 4c 24 0c          	mov    %cl,0xc(%esp)
  101ee8:	3c 25                	cmp    $0x25,%al
  101eea:	0f 84 00 04 00 00    	je     1022f0 <vsnprintf+0x500>
  101ef0:	83 e8 58             	sub    $0x58,%eax
  101ef3:	3c 20                	cmp    $0x20,%al
  101ef5:	0f 87 95 00 00 00    	ja     101f90 <vsnprintf+0x1a0>
  101efb:	0f b6 c0             	movzbl %al,%eax
  101efe:	ff 24 85 94 21 11 00 	jmp    *0x112194(,%eax,4)
  101f05:	8d 76 00             	lea    0x0(%esi),%esi
  101f08:	c7 44 24 08 01 00 00 	movl   $0x1,0x8(%esp)
  101f0f:	00 
  101f10:	89 d3                	mov    %edx,%ebx
  101f12:	e9 71 ff ff ff       	jmp    101e88 <vsnprintf+0x98>
  101f17:	2e 8d b4 26 00 00 00 	lea    %cs:0x0(%esi,%eiz,1),%esi
  101f1e:	00 
  101f1f:	90                   	nop
  101f20:	c7 44 24 0c 01 00 00 	movl   $0x1,0xc(%esp)
  101f27:	00 
  101f28:	89 d3                	mov    %edx,%ebx
  101f2a:	e9 59 ff ff ff       	jmp    101e88 <vsnprintf+0x98>
  101f2f:	90                   	nop
  101f30:	8d 48 d0             	lea    -0x30(%eax),%ecx
  101f33:	31 f6                	xor    %esi,%esi
  101f35:	80 f9 09             	cmp    $0x9,%cl
  101f38:	76 09                	jbe    101f43 <vsnprintf+0x153>
  101f3a:	e9 80 ff ff ff       	jmp    101ebf <vsnprintf+0xcf>
  101f3f:	90                   	nop
  101f40:	83 c2 01             	add    $0x1,%edx
  101f43:	83 e8 30             	sub    $0x30,%eax
  101f46:	8d 0c b6             	lea    (%esi,%esi,4),%ecx
  101f49:	89 d3                	mov    %edx,%ebx
  101f4b:	0f be c0             	movsbl %al,%eax
  101f4e:	8d 34 48             	lea    (%eax,%ecx,2),%esi
  101f51:	0f b6 02             	movzbl (%edx),%eax
  101f54:	8d 48 d0             	lea    -0x30(%eax),%ecx
  101f57:	80 f9 09             	cmp    $0x9,%cl
  101f5a:	76 e4                	jbe    101f40 <vsnprintf+0x150>
  101f5c:	bf ff ff ff ff       	mov    $0xffffffff,%edi
  101f61:	3c 2e                	cmp    $0x2e,%al
  101f63:	0f 85 63 ff ff ff    	jne    101ecc <vsnprintf+0xdc>
  101f69:	0f b6 43 01          	movzbl 0x1(%ebx),%eax
  101f6d:	3c 2a                	cmp    $0x2a,%al
  101f6f:	75 5f                	jne    101fd0 <vsnprintf+0x1e0>
  101f71:	8b 4c 24 6c          	mov    0x6c(%esp),%ecx
  101f75:	8b 44 24 6c          	mov    0x6c(%esp),%eax
  101f79:	83 c3 02             	add    $0x2,%ebx
  101f7c:	83 c1 04             	add    $0x4,%ecx
  101f7f:	8b 38                	mov    (%eax),%edi
  101f81:	0f b6 03             	movzbl (%ebx),%eax
  101f84:	89 4c 24 6c          	mov    %ecx,0x6c(%esp)
  101f88:	e9 3f ff ff ff       	jmp    101ecc <vsnprintf+0xdc>
  101f8d:	8d 76 00             	lea    0x0(%esi),%esi
  101f90:	8b 74 24 64          	mov    0x64(%esp),%esi
  101f94:	8d 45 02             	lea    0x2(%ebp),%eax
  101f97:	85 f6                	test   %esi,%esi
  101f99:	74 25                	je     101fc0 <vsnprintf+0x1d0>
  101f9b:	8d 55 01             	lea    0x1(%ebp),%edx
  101f9e:	3b 54 24 64          	cmp    0x64(%esp),%edx
  101fa2:	73 08                	jae    101fac <vsnprintf+0x1bc>
  101fa4:	8b 74 24 60          	mov    0x60(%esp),%esi
  101fa8:	c6 04 2e 25          	movb   $0x25,(%esi,%ebp,1)
  101fac:	3b 44 24 64          	cmp    0x64(%esp),%eax
  101fb0:	73 0e                	jae    101fc0 <vsnprintf+0x1d0>
  101fb2:	0f b6 0b             	movzbl (%ebx),%ecx
  101fb5:	8b 74 24 60          	mov    0x60(%esp),%esi
  101fb9:	88 0c 16             	mov    %cl,(%esi,%edx,1)
  101fbc:	8d 74 26 00          	lea    0x0(%esi,%eiz,1),%esi
  101fc0:	83 c3 01             	add    $0x1,%ebx
  101fc3:	89 c5                	mov    %eax,%ebp
  101fc5:	e9 55 fe ff ff       	jmp    101e1f <vsnprintf+0x2f>
  101fca:	8d b6 00 00 00 00    	lea    0x0(%esi),%esi
  101fd0:	8d 50 d0             	lea    -0x30(%eax),%edx
  101fd3:	83 c3 01             	add    $0x1,%ebx
  101fd6:	31 ff                	xor    %edi,%edi
  101fd8:	80 fa 09             	cmp    $0x9,%dl
  101fdb:	0f 87 eb fe ff ff    	ja     101ecc <vsnprintf+0xdc>
  101fe1:	8d b4 26 00 00 00 00 	lea    0x0(%esi,%eiz,1),%esi
  101fe8:	83 e8 30             	sub    $0x30,%eax
  101feb:	8d 14 bf             	lea    (%edi,%edi,4),%edx
  101fee:	83 c3 01             	add    $0x1,%ebx
  101ff1:	0f be c0             	movsbl %al,%eax
  101ff4:	8d 3c 50             	lea    (%eax,%edx,2),%edi
  101ff7:	0f b6 03             	movzbl (%ebx),%eax
  101ffa:	8d 50 d0             	lea    -0x30(%eax),%edx
  101ffd:	80 fa 09             	cmp    $0x9,%dl
  102000:	76 e6                	jbe    101fe8 <vsnprintf+0x1f8>
  102002:	e9 c5 fe ff ff       	jmp    101ecc <vsnprintf+0xdc>
  102007:	2e 8d b4 26 00 00 00 	lea    %cs:0x0(%esi,%eiz,1),%esi
  10200e:	00 
  10200f:	90                   	nop
  102010:	8b 44 24 6c          	mov    0x6c(%esp),%eax
  102014:	8b 7c 24 6c          	mov    0x6c(%esp),%edi
  102018:	83 c0 04             	add    $0x4,%eax
  10201b:	89 44 24 10          	mov    %eax,0x10(%esp)
  10201f:	8b 07                	mov    (%edi),%eax
  102021:	85 c0                	test   %eax,%eax
  102023:	0f 88 f7 02 00 00    	js     102320 <vsnprintf+0x530>
  102029:	83 ec 0c             	sub    $0xc,%esp
  10202c:	b9 0a 00 00 00       	mov    $0xa,%ecx
  102031:	6a 00                	push   $0x0
  102033:	8d 54 24 30          	lea    0x30(%esp),%edx
  102037:	e8 14 fd ff ff       	call   101d50 <_uint_to_buf>
  10203c:	83 c4 10             	add    $0x10,%esp
  10203f:	89 c7                	mov    %eax,%edi
  102041:	8b 44 24 10          	mov    0x10(%esp),%eax
  102045:	89 44 24 6c          	mov    %eax,0x6c(%esp)
  102049:	c6 44 3c 20 00       	movb   $0x0,0x20(%esp,%edi,1)
  10204e:	39 fe                	cmp    %edi,%esi
  102050:	0f 8f 7a 02 00 00    	jg     1022d0 <vsnprintf+0x4e0>
  102056:	c7 44 24 10 00 00 00 	movl   $0x0,0x10(%esp)
  10205d:	00 
  10205e:	85 ff                	test   %edi,%edi
  102060:	0f 8e 82 00 00 00    	jle    1020e8 <vsnprintf+0x2f8>
  102066:	8b 74 24 60          	mov    0x60(%esp),%esi
  10206a:	89 5c 24 0c          	mov    %ebx,0xc(%esp)
  10206e:	31 c0                	xor    %eax,%eax
  102070:	8d 4d 01             	lea    0x1(%ebp),%ecx
  102073:	8b 5c 24 64          	mov    0x64(%esp),%ebx
  102077:	01 ee                	add    %ebp,%esi
  102079:	eb 0c                	jmp    102087 <vsnprintf+0x297>
  10207b:	2e 8d 74 26 00       	lea    %cs:0x0(%esi,%eiz,1),%esi
  102080:	83 c0 01             	add    $0x1,%eax
  102083:	39 f8                	cmp    %edi,%eax
  102085:	7d 16                	jge    10209d <vsnprintf+0x2ad>
  102087:	8d 14 01             	lea    (%ecx,%eax,1),%edx
  10208a:	39 da                	cmp    %ebx,%edx
  10208c:	73 f2                	jae    102080 <vsnprintf+0x290>
  10208e:	0f b6 54 04 20       	movzbl 0x20(%esp,%eax,1),%edx
  102093:	88 14 06             	mov    %dl,(%esi,%eax,1)
  102096:	83 c0 01             	add    $0x1,%eax
  102099:	39 f8                	cmp    %edi,%eax
  10209b:	7c ea                	jl     102087 <vsnprintf+0x297>
  10209d:	8b 54 24 08          	mov    0x8(%esp),%edx
  1020a1:	8b 5c 24 0c          	mov    0xc(%esp),%ebx
  1020a5:	01 fd                	add    %edi,%ebp
  1020a7:	85 d2                	test   %edx,%edx
  1020a9:	74 3d                	je     1020e8 <vsnprintf+0x2f8>
  1020ab:	8b 44 24 10          	mov    0x10(%esp),%eax
  1020af:	85 c0                	test   %eax,%eax
  1020b1:	74 35                	je     1020e8 <vsnprintf+0x2f8>
  1020b3:	8b 74 24 10          	mov    0x10(%esp),%esi
  1020b7:	89 e8                	mov    %ebp,%eax
  1020b9:	8b 4c 24 60          	mov    0x60(%esp),%ecx
  1020bd:	8b 54 24 64          	mov    0x64(%esp),%edx
  1020c1:	01 ee                	add    %ebp,%esi
  1020c3:	89 f5                	mov    %esi,%ebp
  1020c5:	eb 0d                	jmp    1020d4 <vsnprintf+0x2e4>
  1020c7:	2e 8d b4 26 00 00 00 	lea    %cs:0x0(%esi,%eiz,1),%esi
  1020ce:	00 
  1020cf:	90                   	nop
  1020d0:	39 c5                	cmp    %eax,%ebp
  1020d2:	74 14                	je     1020e8 <vsnprintf+0x2f8>
  1020d4:	83 c0 01             	add    $0x1,%eax
  1020d7:	39 d0                	cmp    %edx,%eax
  1020d9:	73 f5                	jae    1020d0 <vsnprintf+0x2e0>
  1020db:	c6 44 01 ff 20       	movb   $0x20,-0x1(%ecx,%eax,1)
  1020e0:	39 c5                	cmp    %eax,%ebp
  1020e2:	75 f0                	jne    1020d4 <vsnprintf+0x2e4>
  1020e4:	8d 74 26 00          	lea    0x0(%esi,%eiz,1),%esi
  1020e8:	83 c3 01             	add    $0x1,%ebx
  1020eb:	e9 2f fd ff ff       	jmp    101e1f <vsnprintf+0x2f>
  1020f0:	8b 44 24 6c          	mov    0x6c(%esp),%eax
  1020f4:	8b 7c 24 6c          	mov    0x6c(%esp),%edi
  1020f8:	83 ec 0c             	sub    $0xc,%esp
  1020fb:	b9 08 00 00 00       	mov    $0x8,%ecx
  102100:	83 c0 04             	add    $0x4,%eax
  102103:	89 44 24 1c          	mov    %eax,0x1c(%esp)
  102107:	8b 07                	mov    (%edi),%eax
  102109:	6a 00                	push   $0x0
  10210b:	e9 23 ff ff ff       	jmp    102033 <vsnprintf+0x243>
  102110:	8b 7c 24 6c          	mov    0x6c(%esp),%edi
  102114:	8b 44 24 6c          	mov    0x6c(%esp),%eax
  102118:	c6 44 24 21 00       	movb   $0x0,0x21(%esp)
  10211d:	8b 17                	mov    (%edi),%edx
  10211f:	83 c0 04             	add    $0x4,%eax
  102122:	88 54 24 20          	mov    %dl,0x20(%esp)
  102126:	83 fe 01             	cmp    $0x1,%esi
  102129:	0f 8e db 01 00 00    	jle    10230a <vsnprintf+0x51a>
  10212f:	8b 7c 24 08          	mov    0x8(%esp),%edi
  102133:	83 ee 01             	sub    $0x1,%esi
  102136:	89 44 24 6c          	mov    %eax,0x6c(%esp)
  10213a:	89 74 24 10          	mov    %esi,0x10(%esp)
  10213e:	85 ff                	test   %edi,%edi
  102140:	0f 85 20 ff ff ff    	jne    102066 <vsnprintf+0x276>
  102146:	bf 01 00 00 00       	mov    $0x1,%edi
  10214b:	2e 8d 74 26 00       	lea    %cs:0x0(%esi,%eiz,1),%esi
  102150:	8b 44 24 10          	mov    0x10(%esp),%eax
  102154:	0f b6 4c 24 0c       	movzbl 0xc(%esp),%ecx
  102159:	8b 74 24 60          	mov    0x60(%esp),%esi
  10215d:	8b 54 24 64          	mov    0x64(%esp),%edx
  102161:	01 e8                	add    %ebp,%eax
  102163:	eb 0b                	jmp    102170 <vsnprintf+0x380>
  102165:	8d 76 00             	lea    0x0(%esi),%esi
  102168:	39 e8                	cmp    %ebp,%eax
  10216a:	0f 84 ee fe ff ff    	je     10205e <vsnprintf+0x26e>
  102170:	83 c5 01             	add    $0x1,%ebp
  102173:	39 d5                	cmp    %edx,%ebp
  102175:	73 f1                	jae    102168 <vsnprintf+0x378>
  102177:	88 4c 2e ff          	mov    %cl,-0x1(%esi,%ebp,1)
  10217b:	eb eb                	jmp    102168 <vsnprintf+0x378>
  10217d:	8b 44 24 6c          	mov    0x6c(%esp),%eax
  102181:	8b 7c 24 6c          	mov    0x6c(%esp),%edi
  102185:	83 ec 0c             	sub    $0xc,%esp
  102188:	b9 10 00 00 00       	mov    $0x10,%ecx
  10218d:	83 c0 04             	add    $0x4,%eax
  102190:	89 44 24 1c          	mov    %eax,0x1c(%esp)
  102194:	8b 07                	mov    (%edi),%eax
  102196:	6a 01                	push   $0x1
  102198:	e9 96 fe ff ff       	jmp    102033 <vsnprintf+0x243>
  10219d:	8b 44 24 6c          	mov    0x6c(%esp),%eax
  1021a1:	8b 7c 24 6c          	mov    0x6c(%esp),%edi
  1021a5:	83 ec 0c             	sub    $0xc,%esp
  1021a8:	b9 10 00 00 00       	mov    $0x10,%ecx
  1021ad:	83 c0 04             	add    $0x4,%eax
  1021b0:	89 44 24 1c          	mov    %eax,0x1c(%esp)
  1021b4:	8b 07                	mov    (%edi),%eax
  1021b6:	6a 00                	push   $0x0
  1021b8:	e9 76 fe ff ff       	jmp    102033 <vsnprintf+0x243>
  1021bd:	8b 44 24 6c          	mov    0x6c(%esp),%eax
  1021c1:	8b 7c 24 6c          	mov    0x6c(%esp),%edi
  1021c5:	83 c0 04             	add    $0x4,%eax
  1021c8:	89 44 24 10          	mov    %eax,0x10(%esp)
  1021cc:	8b 07                	mov    (%edi),%eax
  1021ce:	e9 56 fe ff ff       	jmp    102029 <vsnprintf+0x239>
  1021d3:	8b 44 24 6c          	mov    0x6c(%esp),%eax
  1021d7:	83 c0 04             	add    $0x4,%eax
  1021da:	89 44 24 0c          	mov    %eax,0xc(%esp)
  1021de:	8b 44 24 6c          	mov    0x6c(%esp),%eax
  1021e2:	8b 08                	mov    (%eax),%ecx
  1021e4:	b8 c7 39 11 00       	mov    $0x1139c7,%eax
  1021e9:	85 c9                	test   %ecx,%ecx
  1021eb:	0f 45 c1             	cmovne %ecx,%eax
  1021ee:	83 ec 0c             	sub    $0xc,%esp
  1021f1:	89 44 24 1c          	mov    %eax,0x1c(%esp)
  1021f5:	50                   	push   %eax
  1021f6:	e8 25 f7 ff ff       	call   101920 <strlen>
  1021fb:	83 c4 10             	add    $0x10,%esp
  1021fe:	85 ff                	test   %edi,%edi
  102200:	0f 88 54 01 00 00    	js     10235a <vsnprintf+0x56a>
  102206:	39 c7                	cmp    %eax,%edi
  102208:	0f 8d 4c 01 00 00    	jge    10235a <vsnprintf+0x56a>
  10220e:	39 fe                	cmp    %edi,%esi
  102210:	0f 8f 4e 01 00 00    	jg     102364 <vsnprintf+0x574>
  102216:	c7 44 24 1c 00 00 00 	movl   $0x0,0x1c(%esp)
  10221d:	00 
  10221e:	85 ff                	test   %edi,%edi
  102220:	7e 51                	jle    102273 <vsnprintf+0x483>
  102222:	8b 74 24 60          	mov    0x60(%esp),%esi
  102226:	89 5c 24 14          	mov    %ebx,0x14(%esp)
  10222a:	8d 4d 01             	lea    0x1(%ebp),%ecx
  10222d:	31 c0                	xor    %eax,%eax
  10222f:	89 6c 24 18          	mov    %ebp,0x18(%esp)
  102233:	8b 5c 24 64          	mov    0x64(%esp),%ebx
  102237:	01 ee                	add    %ebp,%esi
  102239:	8b 6c 24 10          	mov    0x10(%esp),%ebp
  10223d:	eb 08                	jmp    102247 <vsnprintf+0x457>
  10223f:	90                   	nop
  102240:	83 c0 01             	add    $0x1,%eax
  102243:	39 c7                	cmp    %eax,%edi
  102245:	7e 16                	jle    10225d <vsnprintf+0x46d>
  102247:	8d 14 01             	lea    (%ecx,%eax,1),%edx
  10224a:	39 da                	cmp    %ebx,%edx
  10224c:	73 f2                	jae    102240 <vsnprintf+0x450>
  10224e:	0f b6 54 05 00       	movzbl 0x0(%ebp,%eax,1),%edx
  102253:	88 14 06             	mov    %dl,(%esi,%eax,1)
  102256:	83 c0 01             	add    $0x1,%eax
  102259:	39 c7                	cmp    %eax,%edi
  10225b:	7f ea                	jg     102247 <vsnprintf+0x457>
  10225d:	8b 6c 24 18          	mov    0x18(%esp),%ebp
  102261:	8b 44 24 08          	mov    0x8(%esp),%eax
  102265:	8b 5c 24 14          	mov    0x14(%esp),%ebx
  102269:	01 fd                	add    %edi,%ebp
  10226b:	85 c0                	test   %eax,%eax
  10226d:	0f 85 42 01 00 00    	jne    1023b5 <vsnprintf+0x5c5>
  102273:	8b 44 24 0c          	mov    0xc(%esp),%eax
  102277:	83 c3 01             	add    $0x1,%ebx
  10227a:	89 44 24 6c          	mov    %eax,0x6c(%esp)
  10227e:	e9 9c fb ff ff       	jmp    101e1f <vsnprintf+0x2f>
  102283:	8b 44 24 6c          	mov    0x6c(%esp),%eax
  102287:	8b 7c 24 6c          	mov    0x6c(%esp),%edi
  10228b:	ba 30 78 00 00       	mov    $0x7830,%edx
  102290:	83 ec 0c             	sub    $0xc,%esp
  102293:	66 89 54 24 2c       	mov    %dx,0x2c(%esp)
  102298:	b9 10 00 00 00       	mov    $0x10,%ecx
  10229d:	83 c0 04             	add    $0x4,%eax
  1022a0:	89 44 24 1c          	mov    %eax,0x1c(%esp)
  1022a4:	8b 07                	mov    (%edi),%eax
  1022a6:	6a 00                	push   $0x0
  1022a8:	8d 54 24 32          	lea    0x32(%esp),%edx
  1022ac:	e8 9f fa ff ff       	call   101d50 <_uint_to_buf>
  1022b1:	83 c4 10             	add    $0x10,%esp
  1022b4:	8d 78 02             	lea    0x2(%eax),%edi
  1022b7:	8b 44 24 10          	mov    0x10(%esp),%eax
  1022bb:	c6 44 3c 20 00       	movb   $0x0,0x20(%esp,%edi,1)
  1022c0:	89 44 24 6c          	mov    %eax,0x6c(%esp)
  1022c4:	39 fe                	cmp    %edi,%esi
  1022c6:	0f 8e 8a fd ff ff    	jle    102056 <vsnprintf+0x266>
  1022cc:	8d 74 26 00          	lea    0x0(%esi,%eiz,1),%esi
  1022d0:	8b 4c 24 08          	mov    0x8(%esp),%ecx
  1022d4:	29 fe                	sub    %edi,%esi
  1022d6:	89 74 24 10          	mov    %esi,0x10(%esp)
  1022da:	85 c9                	test   %ecx,%ecx
  1022dc:	0f 84 6e fe ff ff    	je     102150 <vsnprintf+0x360>
  1022e2:	85 ff                	test   %edi,%edi
  1022e4:	0f 8f 7c fd ff ff    	jg     102066 <vsnprintf+0x276>
  1022ea:	e9 c4 fd ff ff       	jmp    1020b3 <vsnprintf+0x2c3>
  1022ef:	90                   	nop
  1022f0:	8d 45 01             	lea    0x1(%ebp),%eax
  1022f3:	3b 44 24 64          	cmp    0x64(%esp),%eax
  1022f7:	0f 83 c3 fc ff ff    	jae    101fc0 <vsnprintf+0x1d0>
  1022fd:	8b 74 24 60          	mov    0x60(%esp),%esi
  102301:	c6 04 2e 25          	movb   $0x25,(%esi,%ebp,1)
  102305:	e9 b6 fc ff ff       	jmp    101fc0 <vsnprintf+0x1d0>
  10230a:	89 44 24 6c          	mov    %eax,0x6c(%esp)
  10230e:	bf 01 00 00 00       	mov    $0x1,%edi
  102313:	c7 44 24 10 00 00 00 	movl   $0x0,0x10(%esp)
  10231a:	00 
  10231b:	e9 46 fd ff ff       	jmp    102066 <vsnprintf+0x276>
  102320:	8d 54 24 20          	lea    0x20(%esp),%edx
  102324:	6a 00                	push   $0x0
  102326:	b9 0a 00 00 00       	mov    $0xa,%ecx
  10232b:	f7 d8                	neg    %eax
  10232d:	e8 1e fa ff ff       	call   101d50 <_uint_to_buf>
  102332:	8d 78 01             	lea    0x1(%eax),%edi
  102335:	57                   	push   %edi
  102336:	8d 54 24 28          	lea    0x28(%esp),%edx
  10233a:	52                   	push   %edx
  10233b:	8d 44 24 2d          	lea    0x2d(%esp),%eax
  10233f:	50                   	push   %eax
  102340:	e8 db f4 ff ff       	call   101820 <memmove>
  102345:	c6 44 24 30 2d       	movb   $0x2d,0x30(%esp)
  10234a:	8b 44 24 20          	mov    0x20(%esp),%eax
  10234e:	83 c4 10             	add    $0x10,%esp
  102351:	89 44 24 6c          	mov    %eax,0x6c(%esp)
  102355:	e9 ef fc ff ff       	jmp    102049 <vsnprintf+0x259>
  10235a:	89 c7                	mov    %eax,%edi
  10235c:	39 fe                	cmp    %edi,%esi
  10235e:	0f 8e b2 fe ff ff    	jle    102216 <vsnprintf+0x426>
  102364:	8b 44 24 08          	mov    0x8(%esp),%eax
  102368:	29 fe                	sub    %edi,%esi
  10236a:	89 74 24 1c          	mov    %esi,0x1c(%esp)
  10236e:	85 c0                	test   %eax,%eax
  102370:	74 56                	je     1023c8 <vsnprintf+0x5d8>
  102372:	85 ff                	test   %edi,%edi
  102374:	0f 8f a8 fe ff ff    	jg     102222 <vsnprintf+0x432>
  10237a:	8b 74 24 1c          	mov    0x1c(%esp),%esi
  10237e:	89 e8                	mov    %ebp,%eax
  102380:	8b 4c 24 60          	mov    0x60(%esp),%ecx
  102384:	8b 54 24 64          	mov    0x64(%esp),%edx
  102388:	01 ee                	add    %ebp,%esi
  10238a:	89 f5                	mov    %esi,%ebp
  10238c:	eb 0a                	jmp    102398 <vsnprintf+0x5a8>
  10238e:	66 90                	xchg   %ax,%ax
  102390:	39 c5                	cmp    %eax,%ebp
  102392:	0f 84 db fe ff ff    	je     102273 <vsnprintf+0x483>
  102398:	83 c0 01             	add    $0x1,%eax
  10239b:	39 d0                	cmp    %edx,%eax
  10239d:	73 f1                	jae    102390 <vsnprintf+0x5a0>
  10239f:	c6 44 01 ff 20       	movb   $0x20,-0x1(%ecx,%eax,1)
  1023a4:	eb ea                	jmp    102390 <vsnprintf+0x5a0>
  1023a6:	31 c0                	xor    %eax,%eax
  1023a8:	85 ff                	test   %edi,%edi
  1023aa:	0f 85 97 fa ff ff    	jne    101e47 <vsnprintf+0x57>
  1023b0:	e9 99 fa ff ff       	jmp    101e4e <vsnprintf+0x5e>
  1023b5:	8b 7c 24 1c          	mov    0x1c(%esp),%edi
  1023b9:	85 ff                	test   %edi,%edi
  1023bb:	75 bd                	jne    10237a <vsnprintf+0x58a>
  1023bd:	e9 b1 fe ff ff       	jmp    102273 <vsnprintf+0x483>
  1023c2:	8d b6 00 00 00 00    	lea    0x0(%esi),%esi
  1023c8:	89 f0                	mov    %esi,%eax
  1023ca:	8b 4c 24 60          	mov    0x60(%esp),%ecx
  1023ce:	8b 54 24 64          	mov    0x64(%esp),%edx
  1023d2:	01 e8                	add    %ebp,%eax
  1023d4:	eb 12                	jmp    1023e8 <vsnprintf+0x5f8>
  1023d6:	2e 8d b4 26 00 00 00 	lea    %cs:0x0(%esi,%eiz,1),%esi
  1023dd:	00 
  1023de:	66 90                	xchg   %ax,%ax
  1023e0:	39 e8                	cmp    %ebp,%eax
  1023e2:	0f 84 36 fe ff ff    	je     10221e <vsnprintf+0x42e>
  1023e8:	83 c5 01             	add    $0x1,%ebp
  1023eb:	39 d5                	cmp    %edx,%ebp
  1023ed:	73 f1                	jae    1023e0 <vsnprintf+0x5f0>
  1023ef:	c6 44 29 ff 20       	movb   $0x20,-0x1(%ecx,%ebp,1)
  1023f4:	eb ea                	jmp    1023e0 <vsnprintf+0x5f0>
  1023f6:	2e 8d b4 26 00 00 00 	lea    %cs:0x0(%esi,%eiz,1),%esi
  1023fd:	00 
  1023fe:	66 90                	xchg   %ax,%ax

00102400 <snprintf>:
  102400:	83 ec 0c             	sub    $0xc,%esp
  102403:	8d 44 24 1c          	lea    0x1c(%esp),%eax
  102407:	50                   	push   %eax
  102408:	ff 74 24 1c          	push   0x1c(%esp)
  10240c:	ff 74 24 1c          	push   0x1c(%esp)
  102410:	ff 74 24 1c          	push   0x1c(%esp)
  102414:	e8 d7 f9 ff ff       	call   101df0 <vsnprintf>
  102419:	83 c4 1c             	add    $0x1c,%esp
  10241c:	c3                   	ret
  10241d:	8d 76 00             	lea    0x0(%esi),%esi

00102420 <sprintf>:
  102420:	83 ec 0c             	sub    $0xc,%esp
  102423:	8d 44 24 18          	lea    0x18(%esp),%eax
  102427:	50                   	push   %eax
  102428:	ff 74 24 18          	push   0x18(%esp)
  10242c:	6a ff                	push   $0xffffffff
  10242e:	ff 74 24 1c          	push   0x1c(%esp)
  102432:	e8 b9 f9 ff ff       	call   101df0 <vsnprintf>
  102437:	83 c4 1c             	add    $0x1c,%esp
  10243a:	c3                   	ret
  10243b:	66 90                	xchg   %ax,%ax
  10243d:	66 90                	xchg   %ax,%ax
  10243f:	90                   	nop

00102440 <pmm_init>:
  102440:	55                   	push   %ebp
  102441:	57                   	push   %edi
  102442:	56                   	push   %esi
  102443:	53                   	push   %ebx
  102444:	83 ec 20             	sub    $0x20,%esp
  102447:	8b 7c 24 38          	mov    0x38(%esp),%edi
  10244b:	68 00 00 02 00       	push   $0x20000
  102450:	68 ff 00 00 00       	push   $0xff
  102455:	68 e0 fc 11 00       	push   $0x11fce0
  10245a:	e8 21 f4 ff ff       	call   101880 <memset>
  10245f:	8b 54 24 40          	mov    0x40(%esp),%edx
  102463:	83 c4 10             	add    $0x10,%esp
  102466:	c7 05 c0 fc 11 00 00 	movl   $0x0,0x11fcc0
  10246d:	00 00 00 
  102470:	c7 05 c4 fc 11 00 00 	movl   $0x0,0x11fcc4
  102477:	00 00 00 
  10247a:	c6 44 24 07 00       	movb   $0x0,0x7(%esp)
  10247f:	29 fa                	sub    %edi,%edx
  102481:	c7 04 24 00 00 00 00 	movl   $0x0,(%esp)
  102488:	39 7c 24 38          	cmp    %edi,0x38(%esp)
  10248c:	0f 82 98 00 00 00    	jb     10252a <pmm_init+0xea>
  102492:	89 fb                	mov    %edi,%ebx
  102494:	89 fd                	mov    %edi,%ebp
  102496:	eb 10                	jmp    1024a8 <pmm_init+0x68>
  102498:	2e 8d b4 26 00 00 00 	lea    %cs:0x0(%esi,%eiz,1),%esi
  10249f:	00 
  1024a0:	01 eb                	add    %ebp,%ebx
  1024a2:	39 5c 24 38          	cmp    %ebx,0x38(%esp)
  1024a6:	72 73                	jb     10251b <pmm_init+0xdb>
  1024a8:	8d 0c 1a             	lea    (%edx,%ebx,1),%ecx
  1024ab:	83 79 10 01          	cmpl   $0x1,0x10(%ecx)
  1024af:	75 ef                	jne    1024a0 <pmm_init+0x60>
  1024b1:	8b 01                	mov    (%ecx),%eax
  1024b3:	8b 79 08             	mov    0x8(%ecx),%edi
  1024b6:	8b 34 24             	mov    (%esp),%esi
  1024b9:	8d 0c 38             	lea    (%eax,%edi,1),%ecx
  1024bc:	c1 e6 0c             	shl    $0xc,%esi
  1024bf:	39 ce                	cmp    %ecx,%esi
  1024c1:	73 0b                	jae    1024ce <pmm_init+0x8e>
  1024c3:	c1 e9 0c             	shr    $0xc,%ecx
  1024c6:	c6 44 24 07 01       	movb   $0x1,0x7(%esp)
  1024cb:	89 0c 24             	mov    %ecx,(%esp)
  1024ce:	85 ff                	test   %edi,%edi
  1024d0:	74 ce                	je     1024a0 <pmm_init+0x60>
  1024d2:	89 5c 24 08          	mov    %ebx,0x8(%esp)
  1024d6:	31 f6                	xor    %esi,%esi
  1024d8:	89 54 24 0c          	mov    %edx,0xc(%esp)
  1024dc:	8d 74 26 00          	lea    0x0(%esi,%eiz,1),%esi
  1024e0:	89 c1                	mov    %eax,%ecx
  1024e2:	ba 01 00 00 00       	mov    $0x1,%edx
  1024e7:	89 c3                	mov    %eax,%ebx
  1024e9:	81 c6 00 10 00 00    	add    $0x1000,%esi
  1024ef:	c1 e9 0c             	shr    $0xc,%ecx
  1024f2:	c1 eb 11             	shr    $0x11,%ebx
  1024f5:	05 00 10 00 00       	add    $0x1000,%eax
  1024fa:	d3 e2                	shl    %cl,%edx
  1024fc:	89 d1                	mov    %edx,%ecx
  1024fe:	f7 d1                	not    %ecx
  102500:	21 0c 9d e0 fc 11 00 	and    %ecx,0x11fce0(,%ebx,4)
  102507:	39 fe                	cmp    %edi,%esi
  102509:	72 d5                	jb     1024e0 <pmm_init+0xa0>
  10250b:	8b 5c 24 08          	mov    0x8(%esp),%ebx
  10250f:	8b 54 24 0c          	mov    0xc(%esp),%edx
  102513:	01 eb                	add    %ebp,%ebx
  102515:	39 5c 24 38          	cmp    %ebx,0x38(%esp)
  102519:	73 8d                	jae    1024a8 <pmm_init+0x68>
  10251b:	80 7c 24 07 00       	cmpb   $0x0,0x7(%esp)
  102520:	74 08                	je     10252a <pmm_init+0xea>
  102522:	8b 04 24             	mov    (%esp),%eax
  102525:	a3 c0 fc 11 00       	mov    %eax,0x11fcc0
  10252a:	31 c9                	xor    %ecx,%ecx
  10252c:	bb 01 00 00 00       	mov    $0x1,%ebx
  102531:	8d b4 26 00 00 00 00 	lea    0x0(%esi,%eiz,1),%esi
  102538:	89 c8                	mov    %ecx,%eax
  10253a:	89 da                	mov    %ebx,%edx
  10253c:	d3 e2                	shl    %cl,%edx
  10253e:	c1 e8 05             	shr    $0x5,%eax
  102541:	83 c1 01             	add    $0x1,%ecx
  102544:	09 14 85 e0 fc 11 00 	or     %edx,0x11fce0(,%eax,4)
  10254b:	81 f9 00 02 00 00    	cmp    $0x200,%ecx
  102551:	75 e5                	jne    102538 <pmm_init+0xf8>
  102553:	83 c4 1c             	add    $0x1c,%esp
  102556:	5b                   	pop    %ebx
  102557:	5e                   	pop    %esi
  102558:	5f                   	pop    %edi
  102559:	5d                   	pop    %ebp
  10255a:	c3                   	ret
  10255b:	2e 8d 74 26 00       	lea    %cs:0x0(%esi,%eiz,1),%esi

00102560 <pmm_alloc_frame>:
  102560:	a1 c0 fc 11 00       	mov    0x11fcc0,%eax
  102565:	85 c0                	test   %eax,%eax
  102567:	74 60                	je     1025c9 <pmm_alloc_frame+0x69>
  102569:	8b 15 e0 fc 11 00    	mov    0x11fce0,%edx
  10256f:	57                   	push   %edi
  102570:	56                   	push   %esi
  102571:	53                   	push   %ebx
  102572:	89 d3                	mov    %edx,%ebx
  102574:	83 e3 01             	and    $0x1,%ebx
  102577:	74 53                	je     1025cc <pmm_alloc_frame+0x6c>
  102579:	31 c9                	xor    %ecx,%ecx
  10257b:	bf 01 00 00 00       	mov    $0x1,%edi
  102580:	eb 1a                	jmp    10259c <pmm_alloc_frame+0x3c>
  102582:	8d b6 00 00 00 00    	lea    0x0(%esi),%esi
  102588:	89 cb                	mov    %ecx,%ebx
  10258a:	89 fe                	mov    %edi,%esi
  10258c:	c1 eb 05             	shr    $0x5,%ebx
  10258f:	d3 e6                	shl    %cl,%esi
  102591:	8b 14 9d e0 fc 11 00 	mov    0x11fce0(,%ebx,4),%edx
  102598:	85 f2                	test   %esi,%edx
  10259a:	74 14                	je     1025b0 <pmm_alloc_frame+0x50>
  10259c:	83 c1 01             	add    $0x1,%ecx
  10259f:	39 c8                	cmp    %ecx,%eax
  1025a1:	75 e5                	jne    102588 <pmm_alloc_frame+0x28>
  1025a3:	5b                   	pop    %ebx
  1025a4:	31 c0                	xor    %eax,%eax
  1025a6:	5e                   	pop    %esi
  1025a7:	5f                   	pop    %edi
  1025a8:	c3                   	ret
  1025a9:	8d b4 26 00 00 00 00 	lea    0x0(%esi,%eiz,1),%esi
  1025b0:	89 c8                	mov    %ecx,%eax
  1025b2:	c1 e0 0c             	shl    $0xc,%eax
  1025b5:	09 f2                	or     %esi,%edx
  1025b7:	83 05 c4 fc 11 00 01 	addl   $0x1,0x11fcc4
  1025be:	89 14 9d e0 fc 11 00 	mov    %edx,0x11fce0(,%ebx,4)
  1025c5:	5b                   	pop    %ebx
  1025c6:	5e                   	pop    %esi
  1025c7:	5f                   	pop    %edi
  1025c8:	c3                   	ret
  1025c9:	31 c0                	xor    %eax,%eax
  1025cb:	c3                   	ret
  1025cc:	31 c0                	xor    %eax,%eax
  1025ce:	be 01 00 00 00       	mov    $0x1,%esi
  1025d3:	eb e0                	jmp    1025b5 <pmm_alloc_frame+0x55>
  1025d5:	2e 8d b4 26 00 00 00 	lea    %cs:0x0(%esi,%eiz,1),%esi
  1025dc:	00 
  1025dd:	8d 76 00             	lea    0x0(%esi),%esi

001025e0 <pmm_free_frame>:
  1025e0:	8b 4c 24 04          	mov    0x4(%esp),%ecx
  1025e4:	b8 fe ff ff ff       	mov    $0xfffffffe,%eax
  1025e9:	89 ca                	mov    %ecx,%edx
  1025eb:	c1 e9 0c             	shr    $0xc,%ecx
  1025ee:	c1 ea 11             	shr    $0x11,%edx
  1025f1:	d3 c0                	rol    %cl,%eax
  1025f3:	21 04 95 e0 fc 11 00 	and    %eax,0x11fce0(,%edx,4)
  1025fa:	a1 c4 fc 11 00       	mov    0x11fcc4,%eax
  1025ff:	85 c0                	test   %eax,%eax
  102601:	74 08                	je     10260b <pmm_free_frame+0x2b>
  102603:	83 e8 01             	sub    $0x1,%eax
  102606:	a3 c4 fc 11 00       	mov    %eax,0x11fcc4
  10260b:	c3                   	ret
  10260c:	8d 74 26 00          	lea    0x0(%esi,%eiz,1),%esi

00102610 <pmm_get_used_frames>:
  102610:	a1 c4 fc 11 00       	mov    0x11fcc4,%eax
  102615:	c3                   	ret
  102616:	2e 8d b4 26 00 00 00 	lea    %cs:0x0(%esi,%eiz,1),%esi
  10261d:	00 
  10261e:	66 90                	xchg   %ax,%ax

00102620 <pmm_get_max_frames>:
  102620:	a1 c0 fc 11 00       	mov    0x11fcc0,%eax
  102625:	c3                   	ret
  102626:	66 90                	xchg   %ax,%ax
  102628:	66 90                	xchg   %ax,%ax
  10262a:	66 90                	xchg   %ax,%ax
  10262c:	66 90                	xchg   %ax,%ax
  10262e:	66 90                	xchg   %ax,%ax

00102630 <paging_map_page>:
  102630:	57                   	push   %edi
  102631:	56                   	push   %esi
  102632:	53                   	push   %ebx
  102633:	8b 44 24 10          	mov    0x10(%esp),%eax
  102637:	89 c3                	mov    %eax,%ebx
  102639:	c1 e8 16             	shr    $0x16,%eax
  10263c:	89 c7                	mov    %eax,%edi
  10263e:	a1 e0 fc 13 00       	mov    0x13fce0,%eax
  102643:	c1 eb 0c             	shr    $0xc,%ebx
  102646:	81 e3 ff 03 00 00    	and    $0x3ff,%ebx
  10264c:	8b 04 b8             	mov    (%eax,%edi,4),%eax
  10264f:	a8 01                	test   $0x1,%al
  102651:	74 1d                	je     102670 <paging_map_page+0x40>
  102653:	8b 54 24 18          	mov    0x18(%esp),%edx
  102657:	25 00 f0 ff ff       	and    $0xfffff000,%eax
  10265c:	81 e2 ff 0f 00 00    	and    $0xfff,%edx
  102662:	0b 54 24 14          	or     0x14(%esp),%edx
  102666:	83 ca 01             	or     $0x1,%edx
  102669:	89 14 98             	mov    %edx,(%eax,%ebx,4)
  10266c:	5b                   	pop    %ebx
  10266d:	5e                   	pop    %esi
  10266e:	5f                   	pop    %edi
  10266f:	c3                   	ret
  102670:	e8 eb fe ff ff       	call   102560 <pmm_alloc_frame>
  102675:	83 ec 04             	sub    $0x4,%esp
  102678:	68 00 10 00 00       	push   $0x1000
  10267d:	89 c6                	mov    %eax,%esi
  10267f:	6a 00                	push   $0x0
  102681:	50                   	push   %eax
  102682:	e8 f9 f1 ff ff       	call   101880 <memset>
  102687:	8b 15 e0 fc 13 00    	mov    0x13fce0,%edx
  10268d:	89 f0                	mov    %esi,%eax
  10268f:	83 c4 10             	add    $0x10,%esp
  102692:	83 c8 07             	or     $0x7,%eax
  102695:	89 04 ba             	mov    %eax,(%edx,%edi,4)
  102698:	eb b9                	jmp    102653 <paging_map_page+0x23>
  10269a:	8d b6 00 00 00 00    	lea    0x0(%esi),%esi

001026a0 <paging_init>:
  1026a0:	55                   	push   %ebp
  1026a1:	57                   	push   %edi
  1026a2:	56                   	push   %esi
  1026a3:	31 f6                	xor    %esi,%esi
  1026a5:	53                   	push   %ebx
  1026a6:	83 ec 0c             	sub    $0xc,%esp
  1026a9:	e8 b2 fe ff ff       	call   102560 <pmm_alloc_frame>
  1026ae:	83 ec 04             	sub    $0x4,%esp
  1026b1:	68 00 10 00 00       	push   $0x1000
  1026b6:	6a 00                	push   $0x0
  1026b8:	50                   	push   %eax
  1026b9:	a3 e4 fc 13 00       	mov    %eax,0x13fce4
  1026be:	e8 bd f1 ff ff       	call   101880 <memset>
  1026c3:	8b 15 e4 fc 13 00    	mov    0x13fce4,%edx
  1026c9:	83 c4 10             	add    $0x10,%esp
  1026cc:	89 15 e0 fc 13 00    	mov    %edx,0x13fce0
  1026d2:	eb 1f                	jmp    1026f3 <paging_init+0x53>
  1026d4:	8d 74 26 00          	lea    0x0(%esi,%eiz,1),%esi
  1026d8:	89 f1                	mov    %esi,%ecx
  1026da:	25 00 f0 ff ff       	and    $0xfffff000,%eax
  1026df:	81 c6 00 10 00 00    	add    $0x1000,%esi
  1026e5:	83 c9 03             	or     $0x3,%ecx
  1026e8:	89 0c b8             	mov    %ecx,(%eax,%edi,4)
  1026eb:	81 fe 00 00 00 08    	cmp    $0x8000000,%esi
  1026f1:	74 41                	je     102734 <paging_init+0x94>
  1026f3:	89 f5                	mov    %esi,%ebp
  1026f5:	89 f7                	mov    %esi,%edi
  1026f7:	c1 ed 16             	shr    $0x16,%ebp
  1026fa:	c1 ef 0c             	shr    $0xc,%edi
  1026fd:	8b 04 aa             	mov    (%edx,%ebp,4),%eax
  102700:	81 e7 ff 03 00 00    	and    $0x3ff,%edi
  102706:	a8 01                	test   $0x1,%al
  102708:	75 ce                	jne    1026d8 <paging_init+0x38>
  10270a:	e8 51 fe ff ff       	call   102560 <pmm_alloc_frame>
  10270f:	83 ec 04             	sub    $0x4,%esp
  102712:	68 00 10 00 00       	push   $0x1000
  102717:	89 c3                	mov    %eax,%ebx
  102719:	6a 00                	push   $0x0
  10271b:	50                   	push   %eax
  10271c:	e8 5f f1 ff ff       	call   101880 <memset>
  102721:	8b 15 e0 fc 13 00    	mov    0x13fce0,%edx
  102727:	89 d8                	mov    %ebx,%eax
  102729:	83 c4 10             	add    $0x10,%esp
  10272c:	83 c8 07             	or     $0x7,%eax
  10272f:	89 04 aa             	mov    %eax,(%edx,%ebp,4)
  102732:	eb a4                	jmp    1026d8 <paging_init+0x38>
  102734:	e8 97 2a 00 00       	call   1051d0 <vesa_get_fb_addr>
  102739:	25 00 f0 ff ff       	and    $0xfffff000,%eax
  10273e:	89 c6                	mov    %eax,%esi
  102740:	e8 9b 2a 00 00       	call   1051e0 <vesa_get_fb_size>
  102745:	85 f6                	test   %esi,%esi
  102747:	74 33                	je     10277c <paging_init+0xdc>
  102749:	8d b8 00 10 00 00    	lea    0x1000(%eax),%edi
  10274f:	3d 00 f0 ff ff       	cmp    $0xfffff000,%eax
  102754:	74 26                	je     10277c <paging_init+0xdc>
  102756:	31 db                	xor    %ebx,%ebx
  102758:	2e 8d b4 26 00 00 00 	lea    %cs:0x0(%esi,%eiz,1),%esi
  10275f:	00 
  102760:	83 ec 04             	sub    $0x4,%esp
  102763:	8d 04 1e             	lea    (%esi,%ebx,1),%eax
  102766:	81 c3 00 10 00 00    	add    $0x1000,%ebx
  10276c:	6a 03                	push   $0x3
  10276e:	50                   	push   %eax
  10276f:	50                   	push   %eax
  102770:	e8 bb fe ff ff       	call   102630 <paging_map_page>
  102775:	83 c4 10             	add    $0x10,%esp
  102778:	39 fb                	cmp    %edi,%ebx
  10277a:	72 e4                	jb     102760 <paging_init+0xc0>
  10277c:	a1 e0 fc 13 00       	mov    0x13fce0,%eax
  102781:	0f 22 d8             	mov    %eax,%cr3
  102784:	0f 20 c0             	mov    %cr0,%eax
  102787:	0d 00 00 00 80       	or     $0x80000000,%eax
  10278c:	0f 22 c0             	mov    %eax,%cr0
  10278f:	83 c4 0c             	add    $0xc,%esp
  102792:	5b                   	pop    %ebx
  102793:	5e                   	pop    %esi
  102794:	5f                   	pop    %edi
  102795:	5d                   	pop    %ebp
  102796:	c3                   	ret
  102797:	2e 8d b4 26 00 00 00 	lea    %cs:0x0(%esi,%eiz,1),%esi
  10279e:	00 
  10279f:	90                   	nop

001027a0 <paging_clone_directory>:
  1027a0:	55                   	push   %ebp
  1027a1:	57                   	push   %edi
  1027a2:	56                   	push   %esi
  1027a3:	31 f6                	xor    %esi,%esi
  1027a5:	53                   	push   %ebx
  1027a6:	83 ec 1c             	sub    $0x1c,%esp
  1027a9:	e8 b2 fd ff ff       	call   102560 <pmm_alloc_frame>
  1027ae:	83 ec 04             	sub    $0x4,%esp
  1027b1:	89 44 24 10          	mov    %eax,0x10(%esp)
  1027b5:	68 00 10 00 00       	push   $0x1000
  1027ba:	6a 00                	push   $0x0
  1027bc:	50                   	push   %eax
  1027bd:	e8 be f0 ff ff       	call   101880 <memset>
  1027c2:	83 c4 10             	add    $0x10,%esp
  1027c5:	eb 1f                	jmp    1027e6 <paging_clone_directory+0x46>
  1027c7:	2e 8d b4 26 00 00 00 	lea    %cs:0x0(%esi,%eiz,1),%esi
  1027ce:	00 
  1027cf:	90                   	nop
  1027d0:	8b 4c 24 0c          	mov    0xc(%esp),%ecx
  1027d4:	89 04 31             	mov    %eax,(%ecx,%esi,1)
  1027d7:	83 c6 04             	add    $0x4,%esi
  1027da:	81 fe 00 10 00 00    	cmp    $0x1000,%esi
  1027e0:	0f 84 9a 00 00 00    	je     102880 <paging_clone_directory+0xe0>
  1027e6:	a1 e4 fc 13 00       	mov    0x13fce4,%eax
  1027eb:	8b 04 30             	mov    (%eax,%esi,1),%eax
  1027ee:	a8 01                	test   $0x1,%al
  1027f0:	75 de                	jne    1027d0 <paging_clone_directory+0x30>
  1027f2:	a1 e0 fc 13 00       	mov    0x13fce0,%eax
  1027f7:	f6 04 30 01          	testb  $0x1,(%eax,%esi,1)
  1027fb:	74 da                	je     1027d7 <paging_clone_directory+0x37>
  1027fd:	e8 5e fd ff ff       	call   102560 <pmm_alloc_frame>
  102802:	83 ec 04             	sub    $0x4,%esp
  102805:	68 00 10 00 00       	push   $0x1000
  10280a:	89 c7                	mov    %eax,%edi
  10280c:	6a 00                	push   $0x0
  10280e:	50                   	push   %eax
  10280f:	e8 6c f0 ff ff       	call   101880 <memset>
  102814:	8b 4c 24 1c          	mov    0x1c(%esp),%ecx
  102818:	89 f8                	mov    %edi,%eax
  10281a:	83 c4 10             	add    $0x10,%esp
  10281d:	83 c8 07             	or     $0x7,%eax
  102820:	89 04 31             	mov    %eax,(%ecx,%esi,1)
  102823:	a1 e0 fc 13 00       	mov    0x13fce0,%eax
  102828:	8b 1c 30             	mov    (%eax,%esi,1),%ebx
  10282b:	81 e3 00 f0 ff ff    	and    $0xfffff000,%ebx
  102831:	29 df                	sub    %ebx,%edi
  102833:	8d ab 00 10 00 00    	lea    0x1000(%ebx),%ebp
  102839:	89 7c 24 08          	mov    %edi,0x8(%esp)
  10283d:	eb 08                	jmp    102847 <paging_clone_directory+0xa7>
  10283f:	90                   	nop
  102840:	83 c3 04             	add    $0x4,%ebx
  102843:	39 dd                	cmp    %ebx,%ebp
  102845:	74 90                	je     1027d7 <paging_clone_directory+0x37>
  102847:	f6 03 01             	testb  $0x1,(%ebx)
  10284a:	74 f4                	je     102840 <paging_clone_directory+0xa0>
  10284c:	e8 0f fd ff ff       	call   102560 <pmm_alloc_frame>
  102851:	83 ec 04             	sub    $0x4,%esp
  102854:	68 00 10 00 00       	push   $0x1000
  102859:	89 c7                	mov    %eax,%edi
  10285b:	8b 03                	mov    (%ebx),%eax
  10285d:	25 00 f0 ff ff       	and    $0xfffff000,%eax
  102862:	50                   	push   %eax
  102863:	57                   	push   %edi
  102864:	e8 77 ef ff ff       	call   1017e0 <memcpy>
  102869:	8b 03                	mov    (%ebx),%eax
  10286b:	89 fa                	mov    %edi,%edx
  10286d:	25 ff 0f 00 00       	and    $0xfff,%eax
  102872:	09 c2                	or     %eax,%edx
  102874:	8b 44 24 18          	mov    0x18(%esp),%eax
  102878:	83 c4 10             	add    $0x10,%esp
  10287b:	89 14 18             	mov    %edx,(%eax,%ebx,1)
  10287e:	eb c0                	jmp    102840 <paging_clone_directory+0xa0>
  102880:	8b 44 24 0c          	mov    0xc(%esp),%eax
  102884:	83 c4 1c             	add    $0x1c,%esp
  102887:	5b                   	pop    %ebx
  102888:	5e                   	pop    %esi
  102889:	5f                   	pop    %edi
  10288a:	5d                   	pop    %ebp
  10288b:	c3                   	ret
  10288c:	8d 74 26 00          	lea    0x0(%esi,%eiz,1),%esi

00102890 <paging_switch_directory>:
  102890:	8b 44 24 04          	mov    0x4(%esp),%eax
  102894:	a3 e0 fc 13 00       	mov    %eax,0x13fce0
  102899:	0f 22 d8             	mov    %eax,%cr3
  10289c:	c3                   	ret
  10289d:	66 90                	xchg   %ax,%ax
  10289f:	90                   	nop

001028a0 <kheap_init>:
  1028a0:	56                   	push   %esi
  1028a1:	53                   	push   %ebx
  1028a2:	bb fe 07 00 00       	mov    $0x7fe,%ebx
  1028a7:	83 ec 04             	sub    $0x4,%esp
  1028aa:	e8 b1 fc ff ff       	call   102560 <pmm_alloc_frame>
  1028af:	89 c6                	mov    %eax,%esi
  1028b1:	e8 aa fc ff ff       	call   102560 <pmm_alloc_frame>
  1028b6:	2e 8d b4 26 00 00 00 	lea    %cs:0x0(%esi,%eiz,1),%esi
  1028bd:	00 
  1028be:	66 90                	xchg   %ax,%ax
  1028c0:	e8 9b fc ff ff       	call   102560 <pmm_alloc_frame>
  1028c5:	e8 96 fc ff ff       	call   102560 <pmm_alloc_frame>
  1028ca:	83 eb 02             	sub    $0x2,%ebx
  1028cd:	75 f1                	jne    1028c0 <kheap_init+0x20>
  1028cf:	c7 06 f4 ff 7f 00    	movl   $0x7ffff4,(%esi)
  1028d5:	c7 46 04 00 00 00 00 	movl   $0x0,0x4(%esi)
  1028dc:	c7 46 08 01 00 00 00 	movl   $0x1,0x8(%esi)
  1028e3:	89 35 e8 fc 13 00    	mov    %esi,0x13fce8
  1028e9:	83 c4 04             	add    $0x4,%esp
  1028ec:	5b                   	pop    %ebx
  1028ed:	5e                   	pop    %esi
  1028ee:	c3                   	ret
  1028ef:	90                   	nop

001028f0 <kmalloc>:
  1028f0:	53                   	push   %ebx
  1028f1:	8b 54 24 08          	mov    0x8(%esp),%edx
  1028f5:	85 d2                	test   %edx,%edx
  1028f7:	74 67                	je     102960 <kmalloc+0x70>
  1028f9:	a1 e8 fc 13 00       	mov    0x13fce8,%eax
  1028fe:	83 c2 03             	add    $0x3,%edx
  102901:	83 e2 fc             	and    $0xfffffffc,%edx
  102904:	85 c0                	test   %eax,%eax
  102906:	74 1c                	je     102924 <kmalloc+0x34>
  102908:	2e 8d b4 26 00 00 00 	lea    %cs:0x0(%esi,%eiz,1),%esi
  10290f:	00 
  102910:	8b 48 08             	mov    0x8(%eax),%ecx
  102913:	85 c9                	test   %ecx,%ecx
  102915:	74 06                	je     10291d <kmalloc+0x2d>
  102917:	8b 08                	mov    (%eax),%ecx
  102919:	39 d1                	cmp    %edx,%ecx
  10291b:	73 13                	jae    102930 <kmalloc+0x40>
  10291d:	8b 40 04             	mov    0x4(%eax),%eax
  102920:	85 c0                	test   %eax,%eax
  102922:	75 ec                	jne    102910 <kmalloc+0x20>
  102924:	5b                   	pop    %ebx
  102925:	c3                   	ret
  102926:	2e 8d b4 26 00 00 00 	lea    %cs:0x0(%esi,%eiz,1),%esi
  10292d:	00 
  10292e:	66 90                	xchg   %ax,%ax
  102930:	8d 5a 0c             	lea    0xc(%edx),%ebx
  102933:	39 cb                	cmp    %ecx,%ebx
  102935:	73 1b                	jae    102952 <kmalloc+0x62>
  102937:	29 d1                	sub    %edx,%ecx
  102939:	01 c3                	add    %eax,%ebx
  10293b:	83 e9 0c             	sub    $0xc,%ecx
  10293e:	c7 43 08 01 00 00 00 	movl   $0x1,0x8(%ebx)
  102945:	89 0b                	mov    %ecx,(%ebx)
  102947:	8b 48 04             	mov    0x4(%eax),%ecx
  10294a:	89 4b 04             	mov    %ecx,0x4(%ebx)
  10294d:	89 58 04             	mov    %ebx,0x4(%eax)
  102950:	89 10                	mov    %edx,(%eax)
  102952:	c7 40 08 00 00 00 00 	movl   $0x0,0x8(%eax)
  102959:	83 c0 0c             	add    $0xc,%eax
  10295c:	5b                   	pop    %ebx
  10295d:	c3                   	ret
  10295e:	66 90                	xchg   %ax,%ax
  102960:	31 c0                	xor    %eax,%eax
  102962:	5b                   	pop    %ebx
  102963:	c3                   	ret
  102964:	2e 8d b4 26 00 00 00 	lea    %cs:0x0(%esi,%eiz,1),%esi
  10296b:	00 
  10296c:	8d 74 26 00          	lea    0x0(%esi,%eiz,1),%esi

00102970 <kfree>:
  102970:	53                   	push   %ebx
  102971:	8b 44 24 08          	mov    0x8(%esp),%eax
  102975:	85 c0                	test   %eax,%eax
  102977:	74 52                	je     1029cb <kfree+0x5b>
  102979:	8b 50 f8             	mov    -0x8(%eax),%edx
  10297c:	c7 40 fc 01 00 00 00 	movl   $0x1,-0x4(%eax)
  102983:	85 d2                	test   %edx,%edx
  102985:	74 07                	je     10298e <kfree+0x1e>
  102987:	8b 4a 08             	mov    0x8(%edx),%ecx
  10298a:	85 c9                	test   %ecx,%ecx
  10298c:	75 4a                	jne    1029d8 <kfree+0x68>
  10298e:	8b 15 e8 fc 13 00    	mov    0x13fce8,%edx
  102994:	85 d2                	test   %edx,%edx
  102996:	74 33                	je     1029cb <kfree+0x5b>
  102998:	2e 8d b4 26 00 00 00 	lea    %cs:0x0(%esi,%eiz,1),%esi
  10299f:	00 
  1029a0:	8b 42 04             	mov    0x4(%edx),%eax
  1029a3:	85 c0                	test   %eax,%eax
  1029a5:	74 24                	je     1029cb <kfree+0x5b>
  1029a7:	8b 5a 08             	mov    0x8(%edx),%ebx
  1029aa:	85 db                	test   %ebx,%ebx
  1029ac:	74 22                	je     1029d0 <kfree+0x60>
  1029ae:	8b 48 08             	mov    0x8(%eax),%ecx
  1029b1:	85 c9                	test   %ecx,%ecx
  1029b3:	74 1b                	je     1029d0 <kfree+0x60>
  1029b5:	8b 48 04             	mov    0x4(%eax),%ecx
  1029b8:	8b 00                	mov    (%eax),%eax
  1029ba:	03 02                	add    (%edx),%eax
  1029bc:	83 c0 0c             	add    $0xc,%eax
  1029bf:	89 4a 04             	mov    %ecx,0x4(%edx)
  1029c2:	89 02                	mov    %eax,(%edx)
  1029c4:	8b 42 04             	mov    0x4(%edx),%eax
  1029c7:	85 c0                	test   %eax,%eax
  1029c9:	75 dc                	jne    1029a7 <kfree+0x37>
  1029cb:	5b                   	pop    %ebx
  1029cc:	c3                   	ret
  1029cd:	8d 76 00             	lea    0x0(%esi),%esi
  1029d0:	89 c2                	mov    %eax,%edx
  1029d2:	eb cc                	jmp    1029a0 <kfree+0x30>
  1029d4:	8d 74 26 00          	lea    0x0(%esi,%eiz,1),%esi
  1029d8:	8b 0a                	mov    (%edx),%ecx
  1029da:	8b 58 f4             	mov    -0xc(%eax),%ebx
  1029dd:	8b 52 04             	mov    0x4(%edx),%edx
  1029e0:	8d 4c 0b 0c          	lea    0xc(%ebx,%ecx,1),%ecx
  1029e4:	89 48 f4             	mov    %ecx,-0xc(%eax)
  1029e7:	89 50 f8             	mov    %edx,-0x8(%eax)
  1029ea:	eb a2                	jmp    10298e <kfree+0x1e>
  1029ec:	66 90                	xchg   %ax,%ax
  1029ee:	66 90                	xchg   %ax,%ax

001029f0 <pit_callback>:
  1029f0:	a1 f0 fc 13 00       	mov    0x13fcf0,%eax
  1029f5:	83 c0 01             	add    $0x1,%eax
  1029f8:	a3 f0 fc 13 00       	mov    %eax,0x13fcf0
  1029fd:	a1 ec fc 13 00       	mov    0x13fcec,%eax
  102a02:	85 c0                	test   %eax,%eax
  102a04:	75 0a                	jne    102a10 <pit_callback+0x20>
  102a06:	c3                   	ret
  102a07:	2e 8d b4 26 00 00 00 	lea    %cs:0x0(%esi,%eiz,1),%esi
  102a0e:	00 
  102a0f:	90                   	nop
  102a10:	83 ec 0c             	sub    $0xc,%esp
  102a13:	e8 a8 20 00 00       	call   104ac0 <task_tick>
  102a18:	a1 f0 fc 13 00       	mov    0x13fcf0,%eax
  102a1d:	a8 01                	test   $0x1,%al
  102a1f:	74 07                	je     102a28 <pit_callback+0x38>
  102a21:	83 c4 0c             	add    $0xc,%esp
  102a24:	c3                   	ret
  102a25:	8d 76 00             	lea    0x0(%esi),%esi
  102a28:	83 c4 0c             	add    $0xc,%esp
  102a2b:	e9 e0 20 00 00       	jmp    104b10 <schedule>

00102a30 <pit_init>:
  102a30:	83 ec 14             	sub    $0x14,%esp
  102a33:	31 d2                	xor    %edx,%edx
  102a35:	b8 de 34 12 00       	mov    $0x1234de,%eax
  102a3a:	8b 4c 24 18          	mov    0x18(%esp),%ecx
  102a3e:	f7 f1                	div    %ecx
  102a40:	89 0d 00 c0 11 00    	mov    %ecx,0x11c000
  102a46:	89 c1                	mov    %eax,%ecx
  102a48:	b8 36 00 00 00       	mov    $0x36,%eax
  102a4d:	e6 43                	out    %al,$0x43
  102a4f:	89 c8                	mov    %ecx,%eax
  102a51:	e6 40                	out    %al,$0x40
  102a53:	89 c8                	mov    %ecx,%eax
  102a55:	c1 e8 08             	shr    $0x8,%eax
  102a58:	e6 40                	out    %al,$0x40
  102a5a:	68 f0 29 10 00       	push   $0x1029f0
  102a5f:	6a 20                	push   $0x20
  102a61:	e8 ba e9 ff ff       	call   101420 <register_interrupt_handler>
  102a66:	83 c4 1c             	add    $0x1c,%esp
  102a69:	c3                   	ret
  102a6a:	8d b6 00 00 00 00    	lea    0x0(%esi),%esi

00102a70 <pit_enable_scheduling>:
  102a70:	c7 05 ec fc 13 00 01 	movl   $0x1,0x13fcec
  102a77:	00 00 00 
  102a7a:	c3                   	ret
  102a7b:	2e 8d 74 26 00       	lea    %cs:0x0(%esi,%eiz,1),%esi

00102a80 <pit_get_ticks>:
  102a80:	a1 f0 fc 13 00       	mov    0x13fcf0,%eax
  102a85:	c3                   	ret
  102a86:	2e 8d b4 26 00 00 00 	lea    %cs:0x0(%esi,%eiz,1),%esi
  102a8d:	00 
  102a8e:	66 90                	xchg   %ax,%ax

00102a90 <pit_get_seconds>:
  102a90:	a1 f0 fc 13 00       	mov    0x13fcf0,%eax
  102a95:	31 d2                	xor    %edx,%edx
  102a97:	f7 35 00 c0 11 00    	divl   0x11c000
  102a9d:	c3                   	ret
  102a9e:	66 90                	xchg   %ax,%ax

00102aa0 <rtc_read>:
  102aa0:	55                   	push   %ebp
  102aa1:	ba 0a 00 00 00       	mov    $0xa,%edx
  102aa6:	57                   	push   %edi
  102aa7:	bf 87 ff ff ff       	mov    $0xffffff87,%edi
  102aac:	56                   	push   %esi
  102aad:	be 84 ff ff ff       	mov    $0xffffff84,%esi
  102ab2:	53                   	push   %ebx
  102ab3:	83 ec 10             	sub    $0x10,%esp
  102ab6:	8b 6c 24 24          	mov    0x24(%esp),%ebp
  102aba:	8d b6 00 00 00 00    	lea    0x0(%esi),%esi
  102ac0:	89 d0                	mov    %edx,%eax
  102ac2:	e6 70                	out    %al,$0x70
  102ac4:	e4 71                	in     $0x71,%al
  102ac6:	84 c0                	test   %al,%al
  102ac8:	78 f6                	js     102ac0 <rtc_read+0x20>
  102aca:	b8 80 ff ff ff       	mov    $0xffffff80,%eax
  102acf:	e6 70                	out    %al,$0x70
  102ad1:	e4 71                	in     $0x71,%al
  102ad3:	88 44 24 0c          	mov    %al,0xc(%esp)
  102ad7:	b8 82 ff ff ff       	mov    $0xffffff82,%eax
  102adc:	e6 70                	out    %al,$0x70
  102ade:	e4 71                	in     $0x71,%al
  102ae0:	88 44 24 08          	mov    %al,0x8(%esp)
  102ae4:	89 f0                	mov    %esi,%eax
  102ae6:	e6 70                	out    %al,$0x70
  102ae8:	e4 71                	in     $0x71,%al
  102aea:	89 f8                	mov    %edi,%eax
  102aec:	e6 70                	out    %al,$0x70
  102aee:	e4 71                	in     $0x71,%al
  102af0:	b8 88 ff ff ff       	mov    $0xffffff88,%eax
  102af5:	e6 70                	out    %al,$0x70
  102af7:	e4 71                	in     $0x71,%al
  102af9:	b8 89 ff ff ff       	mov    $0xffffff89,%eax
  102afe:	e6 70                	out    %al,$0x70
  102b00:	e4 71                	in     $0x71,%al
  102b02:	8d b6 00 00 00 00    	lea    0x0(%esi),%esi
  102b08:	89 d0                	mov    %edx,%eax
  102b0a:	e6 70                	out    %al,$0x70
  102b0c:	e4 71                	in     $0x71,%al
  102b0e:	84 c0                	test   %al,%al
  102b10:	78 f6                	js     102b08 <rtc_read+0x68>
  102b12:	b8 80 ff ff ff       	mov    $0xffffff80,%eax
  102b17:	e6 70                	out    %al,$0x70
  102b19:	e4 71                	in     $0x71,%al
  102b1b:	88 44 24 03          	mov    %al,0x3(%esp)
  102b1f:	b8 82 ff ff ff       	mov    $0xffffff82,%eax
  102b24:	e6 70                	out    %al,$0x70
  102b26:	e4 71                	in     $0x71,%al
  102b28:	88 44 24 04          	mov    %al,0x4(%esp)
  102b2c:	89 f0                	mov    %esi,%eax
  102b2e:	e6 70                	out    %al,$0x70
  102b30:	e4 71                	in     $0x71,%al
  102b32:	88 44 24 0f          	mov    %al,0xf(%esp)
  102b36:	89 f8                	mov    %edi,%eax
  102b38:	e6 70                	out    %al,$0x70
  102b3a:	e4 71                	in     $0x71,%al
  102b3c:	88 44 24 0d          	mov    %al,0xd(%esp)
  102b40:	b8 88 ff ff ff       	mov    $0xffffff88,%eax
  102b45:	e6 70                	out    %al,$0x70
  102b47:	e4 71                	in     $0x71,%al
  102b49:	88 44 24 0e          	mov    %al,0xe(%esp)
  102b4d:	b8 89 ff ff ff       	mov    $0xffffff89,%eax
  102b52:	e6 70                	out    %al,$0x70
  102b54:	e4 71                	in     $0x71,%al
  102b56:	8a 4c 24 0c          	mov    0xc(%esp),%cl
  102b5a:	8a 5c 24 03          	mov    0x3(%esp),%bl
  102b5e:	8a 6c 24 08          	mov    0x8(%esp),%ch
  102b62:	8a 7c 24 04          	mov    0x4(%esp),%bh
  102b66:	66 39 d9             	cmp    %bx,%cx
  102b69:	0f 85 51 ff ff ff    	jne    102ac0 <rtc_read+0x20>
  102b6f:	0f b6 5c 24 03       	movzbl 0x3(%esp),%ebx
  102b74:	0f b6 54 24 0d       	movzbl 0xd(%esp),%edx
  102b79:	0f b6 c8             	movzbl %al,%ecx
  102b7c:	89 c7                	mov    %eax,%edi
  102b7e:	66 89 4d 06          	mov    %cx,0x6(%ebp)
  102b82:	b8 8b ff ff ff       	mov    $0xffffff8b,%eax
  102b87:	88 5d 00             	mov    %bl,0x0(%ebp)
  102b8a:	0f b6 5c 24 04       	movzbl 0x4(%esp),%ebx
  102b8f:	88 55 03             	mov    %dl,0x3(%ebp)
  102b92:	0f b6 54 24 0e       	movzbl 0xe(%esp),%edx
  102b97:	88 5d 01             	mov    %bl,0x1(%ebp)
  102b9a:	0f b6 5c 24 0f       	movzbl 0xf(%esp),%ebx
  102b9f:	88 55 04             	mov    %dl,0x4(%ebp)
  102ba2:	88 5d 02             	mov    %bl,0x2(%ebp)
  102ba5:	e6 70                	out    %al,$0x70
  102ba7:	e4 71                	in     $0x71,%al
  102ba9:	89 c2                	mov    %eax,%edx
  102bab:	a8 04                	test   $0x4,%al
  102bad:	0f 85 8e 00 00 00    	jne    102c41 <rtc_read+0x1a1>
  102bb3:	0f b6 4c 24 03       	movzbl 0x3(%esp),%ecx
  102bb8:	89 c8                	mov    %ecx,%eax
  102bba:	89 ce                	mov    %ecx,%esi
  102bbc:	0f b6 4c 24 04       	movzbl 0x4(%esp),%ecx
  102bc1:	c0 e8 04             	shr    $0x4,%al
  102bc4:	83 e6 0f             	and    $0xf,%esi
  102bc7:	8d 04 80             	lea    (%eax,%eax,4),%eax
  102bca:	8d 04 46             	lea    (%esi,%eax,2),%eax
  102bcd:	88 45 00             	mov    %al,0x0(%ebp)
  102bd0:	89 c8                	mov    %ecx,%eax
  102bd2:	83 e1 0f             	and    $0xf,%ecx
  102bd5:	c0 e8 04             	shr    $0x4,%al
  102bd8:	8d 04 80             	lea    (%eax,%eax,4),%eax
  102bdb:	8d 04 41             	lea    (%ecx,%eax,2),%eax
  102bde:	89 d9                	mov    %ebx,%ecx
  102be0:	88 45 01             	mov    %al,0x1(%ebp)
  102be3:	89 d8                	mov    %ebx,%eax
  102be5:	83 e1 0f             	and    $0xf,%ecx
  102be8:	83 e3 80             	and    $0xffffff80,%ebx
  102beb:	c0 e8 04             	shr    $0x4,%al
  102bee:	83 e0 07             	and    $0x7,%eax
  102bf1:	8d 04 80             	lea    (%eax,%eax,4),%eax
  102bf4:	8d 0c 41             	lea    (%ecx,%eax,2),%ecx
  102bf7:	89 d8                	mov    %ebx,%eax
  102bf9:	0f b6 5c 24 0d       	movzbl 0xd(%esp),%ebx
  102bfe:	09 c1                	or     %eax,%ecx
  102c00:	88 4d 02             	mov    %cl,0x2(%ebp)
  102c03:	89 d9                	mov    %ebx,%ecx
  102c05:	83 e3 0f             	and    $0xf,%ebx
  102c08:	89 d8                	mov    %ebx,%eax
  102c0a:	c0 e9 04             	shr    $0x4,%cl
  102c0d:	0f b6 5c 24 0e       	movzbl 0xe(%esp),%ebx
  102c12:	8d 0c 89             	lea    (%ecx,%ecx,4),%ecx
  102c15:	8d 04 48             	lea    (%eax,%ecx,2),%eax
  102c18:	89 d9                	mov    %ebx,%ecx
  102c1a:	83 e3 0f             	and    $0xf,%ebx
  102c1d:	c0 e9 04             	shr    $0x4,%cl
  102c20:	88 45 03             	mov    %al,0x3(%ebp)
  102c23:	89 d8                	mov    %ebx,%eax
  102c25:	8d 0c 89             	lea    (%ecx,%ecx,4),%ecx
  102c28:	8d 04 48             	lea    (%eax,%ecx,2),%eax
  102c2b:	89 f9                	mov    %edi,%ecx
  102c2d:	88 45 04             	mov    %al,0x4(%ebp)
  102c30:	c0 e9 04             	shr    $0x4,%cl
  102c33:	89 f8                	mov    %edi,%eax
  102c35:	8d 0c 89             	lea    (%ecx,%ecx,4),%ecx
  102c38:	83 e0 0f             	and    $0xf,%eax
  102c3b:	8d 0c 48             	lea    (%eax,%ecx,2),%ecx
  102c3e:	0f b6 c9             	movzbl %cl,%ecx
  102c41:	83 e2 02             	and    $0x2,%edx
  102c44:	75 08                	jne    102c4e <rtc_read+0x1ae>
  102c46:	0f b6 45 02          	movzbl 0x2(%ebp),%eax
  102c4a:	84 c0                	test   %al,%al
  102c4c:	78 1c                	js     102c6a <rtc_read+0x1ca>
  102c4e:	66 83 f9 46          	cmp    $0x46,%cx
  102c52:	19 c0                	sbb    %eax,%eax
  102c54:	83 e0 64             	and    $0x64,%eax
  102c57:	8d 8c 01 6c 07 00 00 	lea    0x76c(%ecx,%eax,1),%ecx
  102c5e:	66 89 4d 06          	mov    %cx,0x6(%ebp)
  102c62:	83 c4 10             	add    $0x10,%esp
  102c65:	5b                   	pop    %ebx
  102c66:	5e                   	pop    %esi
  102c67:	5f                   	pop    %edi
  102c68:	5d                   	pop    %ebp
  102c69:	c3                   	ret
  102c6a:	83 e0 7f             	and    $0x7f,%eax
  102c6d:	8d 58 0c             	lea    0xc(%eax),%ebx
  102c70:	b8 ab aa aa aa       	mov    $0xaaaaaaab,%eax
  102c75:	0f b6 db             	movzbl %bl,%ebx
  102c78:	f7 e3                	mul    %ebx
  102c7a:	c1 ea 04             	shr    $0x4,%edx
  102c7d:	8d 04 52             	lea    (%edx,%edx,2),%eax
  102c80:	c1 e0 03             	shl    $0x3,%eax
  102c83:	29 c3                	sub    %eax,%ebx
  102c85:	88 5d 02             	mov    %bl,0x2(%ebp)
  102c88:	eb c4                	jmp    102c4e <rtc_read+0x1ae>
  102c8a:	8d b6 00 00 00 00    	lea    0x0(%esi),%esi

00102c90 <rtc_datetime_str>:
  102c90:	57                   	push   %edi
  102c91:	bf cd ff ff ff       	mov    $0xffffffcd,%edi
  102c96:	56                   	push   %esi
  102c97:	53                   	push   %ebx
  102c98:	83 ec 10             	sub    $0x10,%esp
  102c9b:	8d 44 24 08          	lea    0x8(%esp),%eax
  102c9f:	8b 5c 24 20          	mov    0x20(%esp),%ebx
  102ca3:	50                   	push   %eax
  102ca4:	e8 f7 fd ff ff       	call   102aa0 <rtc_read>
  102ca9:	0f b7 4c 24 12       	movzwl 0x12(%esp),%ecx
  102cae:	c6 43 04 2d          	movb   $0x2d,0x4(%ebx)
  102cb2:	c6 43 07 2d          	movb   $0x2d,0x7(%ebx)
  102cb6:	89 c8                	mov    %ecx,%eax
  102cb8:	c6 43 0a 20          	movb   $0x20,0xa(%ebx)
  102cbc:	66 c1 e8 03          	shr    $0x3,%ax
  102cc0:	c6 43 0d 3a          	movb   $0x3a,0xd(%ebx)
  102cc4:	0f b7 c0             	movzwl %ax,%eax
  102cc7:	c6 43 10 3a          	movb   $0x3a,0x10(%ebx)
  102ccb:	69 c0 c5 20 00 00    	imul   $0x20c5,%eax,%eax
  102cd1:	c6 43 13 00          	movb   $0x0,0x13(%ebx)
  102cd5:	c1 e8 14             	shr    $0x14,%eax
  102cd8:	0f b7 d0             	movzwl %ax,%edx
  102cdb:	69 d2 cd cc 00 00    	imul   $0xcccd,%edx,%edx
  102ce1:	c1 ea 13             	shr    $0x13,%edx
  102ce4:	8d 14 92             	lea    (%edx,%edx,4),%edx
  102ce7:	01 d2                	add    %edx,%edx
  102ce9:	29 d0                	sub    %edx,%eax
  102ceb:	83 c0 30             	add    $0x30,%eax
  102cee:	88 03                	mov    %al,(%ebx)
  102cf0:	89 c8                	mov    %ecx,%eax
  102cf2:	66 c1 e8 02          	shr    $0x2,%ax
  102cf6:	0f b7 c0             	movzwl %ax,%eax
  102cf9:	69 c0 7b 14 00 00    	imul   $0x147b,%eax,%eax
  102cff:	c1 e8 11             	shr    $0x11,%eax
  102d02:	0f b7 d0             	movzwl %ax,%edx
  102d05:	69 d2 cd cc 00 00    	imul   $0xcccd,%edx,%edx
  102d0b:	c1 ea 13             	shr    $0x13,%edx
  102d0e:	8d 14 92             	lea    (%edx,%edx,4),%edx
  102d11:	01 d2                	add    %edx,%edx
  102d13:	29 d0                	sub    %edx,%eax
  102d15:	83 c0 30             	add    $0x30,%eax
  102d18:	88 43 01             	mov    %al,0x1(%ebx)
  102d1b:	0f b7 c1             	movzwl %cx,%eax
  102d1e:	69 c0 cd cc 00 00    	imul   $0xcccd,%eax,%eax
  102d24:	c1 e8 13             	shr    $0x13,%eax
  102d27:	0f b7 d0             	movzwl %ax,%edx
  102d2a:	89 c6                	mov    %eax,%esi
  102d2c:	8d 04 80             	lea    (%eax,%eax,4),%eax
  102d2f:	69 d2 cd cc 00 00    	imul   $0xcccd,%edx,%edx
  102d35:	01 c0                	add    %eax,%eax
  102d37:	29 c1                	sub    %eax,%ecx
  102d39:	83 c1 30             	add    $0x30,%ecx
  102d3c:	c1 ea 13             	shr    $0x13,%edx
  102d3f:	88 4b 03             	mov    %cl,0x3(%ebx)
  102d42:	0f b6 4c 24 10       	movzbl 0x10(%esp),%ecx
  102d47:	8d 14 92             	lea    (%edx,%edx,4),%edx
  102d4a:	01 d2                	add    %edx,%edx
  102d4c:	89 c8                	mov    %ecx,%eax
  102d4e:	29 d6                	sub    %edx,%esi
  102d50:	8d 56 30             	lea    0x30(%esi),%edx
  102d53:	88 53 02             	mov    %dl,0x2(%ebx)
  102d56:	89 fa                	mov    %edi,%edx
  102d58:	f6 e2                	mul    %dl
  102d5a:	66 c1 e8 0b          	shr    $0xb,%ax
  102d5e:	8d 70 30             	lea    0x30(%eax),%esi
  102d61:	8d 04 80             	lea    (%eax,%eax,4),%eax
  102d64:	01 c0                	add    %eax,%eax
  102d66:	89 f2                	mov    %esi,%edx
  102d68:	29 c1                	sub    %eax,%ecx
  102d6a:	88 53 05             	mov    %dl,0x5(%ebx)
  102d6d:	89 fa                	mov    %edi,%edx
  102d6f:	83 c1 30             	add    $0x30,%ecx
  102d72:	88 4b 06             	mov    %cl,0x6(%ebx)
  102d75:	0f b6 4c 24 0f       	movzbl 0xf(%esp),%ecx
  102d7a:	89 c8                	mov    %ecx,%eax
  102d7c:	f6 e2                	mul    %dl
  102d7e:	66 c1 e8 0b          	shr    $0xb,%ax
  102d82:	8d 70 30             	lea    0x30(%eax),%esi
  102d85:	8d 04 80             	lea    (%eax,%eax,4),%eax
  102d88:	01 c0                	add    %eax,%eax
  102d8a:	89 f2                	mov    %esi,%edx
  102d8c:	29 c1                	sub    %eax,%ecx
  102d8e:	88 53 08             	mov    %dl,0x8(%ebx)
  102d91:	89 fa                	mov    %edi,%edx
  102d93:	83 c1 30             	add    $0x30,%ecx
  102d96:	88 4b 09             	mov    %cl,0x9(%ebx)
  102d99:	0f b6 4c 24 0e       	movzbl 0xe(%esp),%ecx
  102d9e:	89 c8                	mov    %ecx,%eax
  102da0:	f6 e2                	mul    %dl
  102da2:	66 c1 e8 0b          	shr    $0xb,%ax
  102da6:	8d 70 30             	lea    0x30(%eax),%esi
  102da9:	8d 04 80             	lea    (%eax,%eax,4),%eax
  102dac:	01 c0                	add    %eax,%eax
  102dae:	89 f2                	mov    %esi,%edx
  102db0:	29 c1                	sub    %eax,%ecx
  102db2:	88 53 0b             	mov    %dl,0xb(%ebx)
  102db5:	89 fa                	mov    %edi,%edx
  102db7:	83 c1 30             	add    $0x30,%ecx
  102dba:	88 4b 0c             	mov    %cl,0xc(%ebx)
  102dbd:	0f b6 4c 24 0d       	movzbl 0xd(%esp),%ecx
  102dc2:	89 c8                	mov    %ecx,%eax
  102dc4:	f6 e2                	mul    %dl
  102dc6:	66 c1 e8 0b          	shr    $0xb,%ax
  102dca:	8d 70 30             	lea    0x30(%eax),%esi
  102dcd:	8d 04 80             	lea    (%eax,%eax,4),%eax
  102dd0:	01 c0                	add    %eax,%eax
  102dd2:	89 f2                	mov    %esi,%edx
  102dd4:	29 c1                	sub    %eax,%ecx
  102dd6:	89 f8                	mov    %edi,%eax
  102dd8:	88 53 0e             	mov    %dl,0xe(%ebx)
  102ddb:	83 c1 30             	add    $0x30,%ecx
  102dde:	88 4b 0f             	mov    %cl,0xf(%ebx)
  102de1:	0f b6 4c 24 0c       	movzbl 0xc(%esp),%ecx
  102de6:	f6 e1                	mul    %cl
  102de8:	66 c1 e8 0b          	shr    $0xb,%ax
  102dec:	8d 50 30             	lea    0x30(%eax),%edx
  102def:	8d 04 80             	lea    (%eax,%eax,4),%eax
  102df2:	01 c0                	add    %eax,%eax
  102df4:	88 53 11             	mov    %dl,0x11(%ebx)
  102df7:	29 c1                	sub    %eax,%ecx
  102df9:	83 c1 30             	add    $0x30,%ecx
  102dfc:	88 4b 12             	mov    %cl,0x12(%ebx)
  102dff:	83 c4 14             	add    $0x14,%esp
  102e02:	5b                   	pop    %ebx
  102e03:	5e                   	pop    %esi
  102e04:	5f                   	pop    %edi
  102e05:	c3                   	ret
  102e06:	66 90                	xchg   %ax,%ax
  102e08:	66 90                	xchg   %ax,%ax
  102e0a:	66 90                	xchg   %ax,%ax
  102e0c:	66 90                	xchg   %ax,%ax
  102e0e:	66 90                	xchg   %ax,%ax

00102e10 <shell_set_input>:
  102e10:	53                   	push   %ebx
  102e11:	89 c3                	mov    %eax,%ebx
  102e13:	83 ec 08             	sub    $0x8,%esp
  102e16:	a1 20 25 14 00       	mov    0x142520,%eax
  102e1b:	85 c0                	test   %eax,%eax
  102e1d:	74 1f                	je     102e3e <shell_set_input+0x2e>
  102e1f:	90                   	nop
  102e20:	83 ec 0c             	sub    $0xc,%esp
  102e23:	83 e8 01             	sub    $0x1,%eax
  102e26:	6a 08                	push   $0x8
  102e28:	a3 20 25 14 00       	mov    %eax,0x142520
  102e2d:	e8 9e d3 ff ff       	call   1001d0 <terminal_putchar>
  102e32:	a1 20 25 14 00       	mov    0x142520,%eax
  102e37:	83 c4 10             	add    $0x10,%esp
  102e3a:	85 c0                	test   %eax,%eax
  102e3c:	75 e2                	jne    102e20 <shell_set_input+0x10>
  102e3e:	c7 05 20 25 14 00 00 	movl   $0x0,0x142520
  102e45:	00 00 00 
  102e48:	0f be 03             	movsbl (%ebx),%eax
  102e4b:	31 d2                	xor    %edx,%edx
  102e4d:	84 c0                	test   %al,%al
  102e4f:	75 0f                	jne    102e60 <shell_set_input+0x50>
  102e51:	eb 36                	jmp    102e89 <shell_set_input+0x79>
  102e53:	2e 8d 74 26 00       	lea    %cs:0x0(%esi,%eiz,1),%esi
  102e58:	81 fa fe 00 00 00    	cmp    $0xfe,%edx
  102e5e:	77 29                	ja     102e89 <shell_set_input+0x79>
  102e60:	83 ec 0c             	sub    $0xc,%esp
  102e63:	88 82 40 25 14 00    	mov    %al,0x142540(%edx)
  102e69:	50                   	push   %eax
  102e6a:	e8 61 d3 ff ff       	call   1001d0 <terminal_putchar>
  102e6f:	a1 20 25 14 00       	mov    0x142520,%eax
  102e74:	83 c4 10             	add    $0x10,%esp
  102e77:	8d 50 01             	lea    0x1(%eax),%edx
  102e7a:	0f be 44 03 01       	movsbl 0x1(%ebx,%eax,1),%eax
  102e7f:	89 15 20 25 14 00    	mov    %edx,0x142520
  102e85:	84 c0                	test   %al,%al
  102e87:	75 cf                	jne    102e58 <shell_set_input+0x48>
  102e89:	c6 82 40 25 14 00 00 	movb   $0x0,0x142540(%edx)
  102e90:	83 c4 08             	add    $0x8,%esp
  102e93:	5b                   	pop    %ebx
  102e94:	c3                   	ret
  102e95:	2e 8d b4 26 00 00 00 	lea    %cs:0x0(%esi,%eiz,1),%esi
  102e9c:	00 
  102e9d:	8d 76 00             	lea    0x0(%esi),%esi

00102ea0 <execute>:
  102ea0:	55                   	push   %ebp
  102ea1:	57                   	push   %edi
  102ea2:	56                   	push   %esi
  102ea3:	53                   	push   %ebx
  102ea4:	81 ec 28 05 00 00    	sub    $0x528,%esp
  102eaa:	6a 0a                	push   $0xa
  102eac:	e8 1f d3 ff ff       	call   1001d0 <terminal_putchar>
  102eb1:	a1 20 25 14 00       	mov    0x142520,%eax
  102eb6:	83 c4 10             	add    $0x10,%esp
  102eb9:	c6 80 40 25 14 00 00 	movb   $0x0,0x142540(%eax)
  102ec0:	80 3d 40 25 14 00 00 	cmpb   $0x0,0x142540
  102ec7:	75 77                	jne    102f40 <execute+0xa0>
  102ec9:	c7 05 40 c0 11 00 ff 	movl   $0xffffffff,0x11c040
  102ed0:	ff ff ff 
  102ed3:	c7 05 20 25 14 00 00 	movl   $0x0,0x142520
  102eda:	00 00 00 
  102edd:	83 ec 0c             	sub    $0xc,%esp
  102ee0:	6a 0a                	push   $0xa
  102ee2:	e8 d9 d2 ff ff       	call   1001c0 <terminal_setcolor>
  102ee7:	c7 04 24 20 c0 11 00 	movl   $0x11c020,(%esp)
  102eee:	e8 7d d4 ff ff       	call   100370 <terminal_writestring>
  102ef3:	c7 04 24 07 00 00 00 	movl   $0x7,(%esp)
  102efa:	e8 c1 d2 ff ff       	call   1001c0 <terminal_setcolor>
  102eff:	c7 04 24 83 3e 11 00 	movl   $0x113e83,(%esp)
  102f06:	e8 65 d4 ff ff       	call   100370 <terminal_writestring>
  102f0b:	c7 04 24 0b 00 00 00 	movl   $0xb,(%esp)
  102f12:	e8 a9 d2 ff ff       	call   1001c0 <terminal_setcolor>
  102f17:	c7 04 24 8c 3e 11 00 	movl   $0x113e8c,(%esp)
  102f1e:	e8 4d d4 ff ff       	call   100370 <terminal_writestring>
  102f23:	c7 04 24 07 00 00 00 	movl   $0x7,(%esp)
  102f2a:	e8 91 d2 ff ff       	call   1001c0 <terminal_setcolor>
  102f2f:	81 c4 2c 05 00 00    	add    $0x52c,%esp
  102f35:	5b                   	pop    %ebx
  102f36:	5e                   	pop    %esi
  102f37:	5f                   	pop    %edi
  102f38:	5d                   	pop    %ebp
  102f39:	e9 32 3a 00 00       	jmp    106970 <wm_request_redraw>
  102f3e:	66 90                	xchg   %ax,%ax
  102f40:	a1 00 1d 14 00       	mov    0x141d00,%eax
  102f45:	83 ec 04             	sub    $0x4,%esp
  102f48:	be 40 25 14 00       	mov    $0x142540,%esi
  102f4d:	68 ff 00 00 00       	push   $0xff
  102f52:	99                   	cltd
  102f53:	68 40 25 14 00       	push   $0x142540
  102f58:	c1 ea 1d             	shr    $0x1d,%edx
  102f5b:	01 d0                	add    %edx,%eax
  102f5d:	83 e0 07             	and    $0x7,%eax
  102f60:	29 d0                	sub    %edx,%eax
  102f62:	c1 e0 08             	shl    $0x8,%eax
  102f65:	05 20 1d 14 00       	add    $0x141d20,%eax
  102f6a:	50                   	push   %eax
  102f6b:	e8 10 eb ff ff       	call   101a80 <strncpy>
  102f70:	0f b6 05 40 25 14 00 	movzbl 0x142540,%eax
  102f77:	83 05 00 1d 14 00 01 	addl   $0x1,0x141d00
  102f7e:	83 c4 10             	add    $0x10,%esp
  102f81:	c7 05 40 c0 11 00 ff 	movl   $0xffffffff,0x11c040
  102f88:	ff ff ff 
  102f8b:	3c 20                	cmp    $0x20,%al
  102f8d:	75 0c                	jne    102f9b <execute+0xfb>
  102f8f:	90                   	nop
  102f90:	0f b6 46 01          	movzbl 0x1(%esi),%eax
  102f94:	83 c6 01             	add    $0x1,%esi
  102f97:	3c 20                	cmp    $0x20,%al
  102f99:	74 f5                	je     102f90 <execute+0xf0>
  102f9b:	84 c0                	test   %al,%al
  102f9d:	0f 84 30 ff ff ff    	je     102ed3 <execute+0x33>
  102fa3:	83 ec 08             	sub    $0x8,%esp
  102fa6:	68 df 39 11 00       	push   $0x1139df
  102fab:	56                   	push   %esi
  102fac:	e8 9f e9 ff ff       	call   101950 <strcmp>
  102fb1:	83 c4 10             	add    $0x10,%esp
  102fb4:	85 c0                	test   %eax,%eax
  102fb6:	0f 85 a4 00 00 00    	jne    103060 <execute+0x1c0>
  102fbc:	83 ec 0c             	sub    $0xc,%esp
  102fbf:	31 db                	xor    %ebx,%ebx
  102fc1:	6a 0b                	push   $0xb
  102fc3:	e8 f8 d1 ff ff       	call   1001c0 <terminal_setcolor>
  102fc8:	c7 04 24 d4 48 11 00 	movl   $0x1148d4,(%esp)
  102fcf:	e8 9c d3 ff ff       	call   100370 <terminal_writestring>
  102fd4:	c7 04 24 08 00 00 00 	movl   $0x8,(%esp)
  102fdb:	e8 e0 d1 ff ff       	call   1001c0 <terminal_setcolor>
  102fe0:	c7 04 24 fc 48 11 00 	movl   $0x1148fc,(%esp)
  102fe7:	e8 84 d3 ff ff       	call   100370 <terminal_writestring>
  102fec:	c7 04 24 07 00 00 00 	movl   $0x7,(%esp)
  102ff3:	e8 c8 d1 ff ff       	call   1001c0 <terminal_setcolor>
  102ff8:	83 c4 10             	add    $0x10,%esp
  102ffb:	2e 8d 74 26 00       	lea    %cs:0x0(%esi,%eiz,1),%esi
  103000:	83 ec 0c             	sub    $0xc,%esp
  103003:	6a 0f                	push   $0xf
  103005:	e8 b6 d1 ff ff       	call   1001c0 <terminal_setcolor>
  10300a:	58                   	pop    %eax
  10300b:	5a                   	pop    %edx
  10300c:	ff 34 dd 40 22 11 00 	push   0x112240(,%ebx,8)
  103013:	68 e4 39 11 00       	push   $0x1139e4
  103018:	e8 f3 d5 ff ff       	call   100610 <terminal_printf>
  10301d:	c7 04 24 07 00 00 00 	movl   $0x7,(%esp)
  103024:	e8 97 d1 ff ff       	call   1001c0 <terminal_setcolor>
  103029:	59                   	pop    %ecx
  10302a:	5e                   	pop    %esi
  10302b:	ff 34 dd 44 22 11 00 	push   0x112244(,%ebx,8)
  103032:	68 ec 39 11 00       	push   $0x1139ec
  103037:	83 c3 01             	add    $0x1,%ebx
  10303a:	e8 d1 d5 ff ff       	call   100610 <terminal_printf>
  10303f:	83 c4 10             	add    $0x10,%esp
  103042:	83 fb 14             	cmp    $0x14,%ebx
  103045:	75 b9                	jne    103000 <execute+0x160>
  103047:	83 ec 0c             	sub    $0xc,%esp
  10304a:	6a 0a                	push   $0xa
  10304c:	e8 7f d1 ff ff       	call   1001d0 <terminal_putchar>
  103051:	83 c4 10             	add    $0x10,%esp
  103054:	e9 7a fe ff ff       	jmp    102ed3 <execute+0x33>
  103059:	8d b4 26 00 00 00 00 	lea    0x0(%esi,%eiz,1),%esi
  103060:	83 ec 08             	sub    $0x8,%esp
  103063:	68 f2 39 11 00       	push   $0x1139f2
  103068:	56                   	push   %esi
  103069:	e8 e2 e8 ff ff       	call   101950 <strcmp>
  10306e:	83 c4 10             	add    $0x10,%esp
  103071:	85 c0                	test   %eax,%eax
  103073:	0f 84 f7 02 00 00    	je     103370 <execute+0x4d0>
  103079:	83 ec 08             	sub    $0x8,%esp
  10307c:	68 f8 39 11 00       	push   $0x1139f8
  103081:	56                   	push   %esi
  103082:	e8 c9 e8 ff ff       	call   101950 <strcmp>
  103087:	83 c4 10             	add    $0x10,%esp
  10308a:	85 c0                	test   %eax,%eax
  10308c:	0f 85 e8 02 00 00    	jne    10337a <execute+0x4da>
  103092:	83 ec 0c             	sub    $0xc,%esp
  103095:	8d 7c 24 1c          	lea    0x1c(%esp),%edi
  103099:	57                   	push   %edi
  10309a:	e8 f1 fb ff ff       	call   102c90 <rtc_datetime_str>
  10309f:	e8 7c f5 ff ff       	call   102620 <pmm_get_max_frames>
  1030a4:	8d 1c 85 00 00 00 00 	lea    0x0(,%eax,4),%ebx
  1030ab:	e8 60 f5 ff ff       	call   102610 <pmm_get_used_frames>
  1030b0:	c7 04 24 0b 00 00 00 	movl   $0xb,(%esp)
  1030b7:	8d 34 85 00 00 00 00 	lea    0x0(,%eax,4),%esi
  1030be:	e8 fd d0 ff ff       	call   1001c0 <terminal_setcolor>
  1030c3:	c7 04 24 fd 39 11 00 	movl   $0x1139fd,(%esp)
  1030ca:	e8 a1 d2 ff ff       	call   100370 <terminal_writestring>
  1030cf:	c7 04 24 08 00 00 00 	movl   $0x8,(%esp)
  1030d6:	e8 e5 d0 ff ff       	call   1001c0 <terminal_setcolor>
  1030db:	c7 04 24 fc 48 11 00 	movl   $0x1148fc,(%esp)
  1030e2:	e8 89 d2 ff ff       	call   100370 <terminal_writestring>
  1030e7:	c7 04 24 07 00 00 00 	movl   $0x7,(%esp)
  1030ee:	e8 cd d0 ff ff       	call   1001c0 <terminal_setcolor>
  1030f3:	c7 04 24 0f 00 00 00 	movl   $0xf,(%esp)
  1030fa:	e8 c1 d0 ff ff       	call   1001c0 <terminal_setcolor>
  1030ff:	59                   	pop    %ecx
  103100:	5d                   	pop    %ebp
  103101:	68 14 3a 11 00       	push   $0x113a14
  103106:	68 17 3a 11 00       	push   $0x113a17
  10310b:	e8 00 d5 ff ff       	call   100610 <terminal_printf>
  103110:	c7 04 24 07 00 00 00 	movl   $0x7,(%esp)
  103117:	e8 a4 d0 ff ff       	call   1001c0 <terminal_setcolor>
  10311c:	c7 04 24 1f 3a 11 00 	movl   $0x113a1f,(%esp)
  103123:	e8 e8 d4 ff ff       	call   100610 <terminal_printf>
  103128:	c7 04 24 0f 00 00 00 	movl   $0xf,(%esp)
  10312f:	e8 8c d0 ff ff       	call   1001c0 <terminal_setcolor>
  103134:	58                   	pop    %eax
  103135:	5a                   	pop    %edx
  103136:	68 2d 3a 11 00       	push   $0x113a2d
  10313b:	68 17 3a 11 00       	push   $0x113a17
  103140:	e8 cb d4 ff ff       	call   100610 <terminal_printf>
  103145:	c7 04 24 07 00 00 00 	movl   $0x7,(%esp)
  10314c:	e8 6f d0 ff ff       	call   1001c0 <terminal_setcolor>
  103151:	c7 04 24 3a 3a 11 00 	movl   $0x113a3a,(%esp)
  103158:	e8 b3 d4 ff ff       	call   100610 <terminal_printf>
  10315d:	c7 04 24 0f 00 00 00 	movl   $0xf,(%esp)
  103164:	e8 57 d0 ff ff       	call   1001c0 <terminal_setcolor>
  103169:	59                   	pop    %ecx
  10316a:	5d                   	pop    %ebp
  10316b:	68 56 3a 11 00       	push   $0x113a56
  103170:	68 17 3a 11 00       	push   $0x113a17
  103175:	e8 96 d4 ff ff       	call   100610 <terminal_printf>
  10317a:	c7 04 24 07 00 00 00 	movl   $0x7,(%esp)
  103181:	e8 3a d0 ff ff       	call   1001c0 <terminal_setcolor>
  103186:	58                   	pop    %eax
  103187:	5a                   	pop    %edx
  103188:	68 20 c0 11 00       	push   $0x11c020
  10318d:	68 ee 39 11 00       	push   $0x1139ee
  103192:	e8 79 d4 ff ff       	call   100610 <terminal_printf>
  103197:	c7 04 24 0f 00 00 00 	movl   $0xf,(%esp)
  10319e:	e8 1d d0 ff ff       	call   1001c0 <terminal_setcolor>
  1031a3:	59                   	pop    %ecx
  1031a4:	5d                   	pop    %ebp
  1031a5:	68 5b 3a 11 00       	push   $0x113a5b
  1031aa:	68 17 3a 11 00       	push   $0x113a17
  1031af:	e8 5c d4 ff ff       	call   100610 <terminal_printf>
  1031b4:	c7 04 24 07 00 00 00 	movl   $0x7,(%esp)
  1031bb:	e8 00 d0 ff ff       	call   1001c0 <terminal_setcolor>
  1031c0:	58                   	pop    %eax
  1031c1:	5a                   	pop    %edx
  1031c2:	57                   	push   %edi
  1031c3:	68 ee 39 11 00       	push   $0x1139ee
  1031c8:	e8 43 d4 ff ff       	call   100610 <terminal_printf>
  1031cd:	c7 04 24 0f 00 00 00 	movl   $0xf,(%esp)
  1031d4:	e8 e7 cf ff ff       	call   1001c0 <terminal_setcolor>
  1031d9:	59                   	pop    %ecx
  1031da:	5f                   	pop    %edi
  1031db:	68 65 3a 11 00       	push   $0x113a65
  1031e0:	68 17 3a 11 00       	push   $0x113a17
  1031e5:	e8 26 d4 ff ff       	call   100610 <terminal_printf>
  1031ea:	c7 04 24 07 00 00 00 	movl   $0x7,(%esp)
  1031f1:	e8 ca cf ff ff       	call   1001c0 <terminal_setcolor>
  1031f6:	e8 85 f8 ff ff       	call   102a80 <pit_get_ticks>
  1031fb:	89 c7                	mov    %eax,%edi
  1031fd:	e8 8e f8 ff ff       	call   102a90 <pit_get_seconds>
  103202:	83 c4 0c             	add    $0xc,%esp
  103205:	57                   	push   %edi
  103206:	50                   	push   %eax
  103207:	68 6c 3a 11 00       	push   $0x113a6c
  10320c:	e8 ff d3 ff ff       	call   100610 <terminal_printf>
  103211:	c7 04 24 0f 00 00 00 	movl   $0xf,(%esp)
  103218:	e8 a3 cf ff ff       	call   1001c0 <terminal_setcolor>
  10321d:	5d                   	pop    %ebp
  10321e:	58                   	pop    %eax
  10321f:	68 7d 3a 11 00       	push   $0x113a7d
  103224:	68 17 3a 11 00       	push   $0x113a17
  103229:	e8 e2 d3 ff ff       	call   100610 <terminal_printf>
  10322e:	c7 04 24 07 00 00 00 	movl   $0x7,(%esp)
  103235:	e8 86 cf ff ff       	call   1001c0 <terminal_setcolor>
  10323a:	89 d8                	mov    %ebx,%eax
  10323c:	83 c4 0c             	add    $0xc,%esp
  10323f:	c1 e8 0a             	shr    $0xa,%eax
  103242:	50                   	push   %eax
  103243:	53                   	push   %ebx
  103244:	29 f3                	sub    %esi,%ebx
  103246:	68 87 3a 11 00       	push   $0x113a87
  10324b:	e8 c0 d3 ff ff       	call   100610 <terminal_printf>
  103250:	c7 04 24 0f 00 00 00 	movl   $0xf,(%esp)
  103257:	e8 64 cf ff ff       	call   1001c0 <terminal_setcolor>
  10325c:	58                   	pop    %eax
  10325d:	5a                   	pop    %edx
  10325e:	68 97 3a 11 00       	push   $0x113a97
  103263:	68 17 3a 11 00       	push   $0x113a17
  103268:	e8 a3 d3 ff ff       	call   100610 <terminal_printf>
  10326d:	c7 04 24 07 00 00 00 	movl   $0x7,(%esp)
  103274:	e8 47 cf ff ff       	call   1001c0 <terminal_setcolor>
  103279:	59                   	pop    %ecx
  10327a:	5f                   	pop    %edi
  10327b:	56                   	push   %esi
  10327c:	68 a0 3a 11 00       	push   $0x113aa0
  103281:	e8 8a d3 ff ff       	call   100610 <terminal_printf>
  103286:	c7 04 24 0f 00 00 00 	movl   $0xf,(%esp)
  10328d:	e8 2e cf ff ff       	call   1001c0 <terminal_setcolor>
  103292:	5d                   	pop    %ebp
  103293:	58                   	pop    %eax
  103294:	68 a7 3a 11 00       	push   $0x113aa7
  103299:	68 17 3a 11 00       	push   $0x113a17
  10329e:	e8 6d d3 ff ff       	call   100610 <terminal_printf>
  1032a3:	c7 04 24 07 00 00 00 	movl   $0x7,(%esp)
  1032aa:	e8 11 cf ff ff       	call   1001c0 <terminal_setcolor>
  1032af:	58                   	pop    %eax
  1032b0:	5a                   	pop    %edx
  1032b1:	53                   	push   %ebx
  1032b2:	68 a0 3a 11 00       	push   $0x113aa0
  1032b7:	e8 54 d3 ff ff       	call   100610 <terminal_printf>
  1032bc:	c7 04 24 0f 00 00 00 	movl   $0xf,(%esp)
  1032c3:	e8 f8 ce ff ff       	call   1001c0 <terminal_setcolor>
  1032c8:	59                   	pop    %ecx
  1032c9:	5b                   	pop    %ebx
  1032ca:	68 b0 3a 11 00       	push   $0x113ab0
  1032cf:	68 17 3a 11 00       	push   $0x113a17
  1032d4:	e8 37 d3 ff ff       	call   100610 <terminal_printf>
  1032d9:	c7 04 24 07 00 00 00 	movl   $0x7,(%esp)
  1032e0:	e8 db ce ff ff       	call   1001c0 <terminal_setcolor>
  1032e5:	c7 04 24 b7 3a 11 00 	movl   $0x113ab7,(%esp)
  1032ec:	e8 1f d3 ff ff       	call   100610 <terminal_printf>
  1032f1:	c7 04 24 0f 00 00 00 	movl   $0xf,(%esp)
  1032f8:	e8 c3 ce ff ff       	call   1001c0 <terminal_setcolor>
  1032fd:	5e                   	pop    %esi
  1032fe:	5f                   	pop    %edi
  1032ff:	68 d5 3a 11 00       	push   $0x113ad5
  103304:	68 17 3a 11 00       	push   $0x113a17
  103309:	e8 02 d3 ff ff       	call   100610 <terminal_printf>
  10330e:	c7 04 24 07 00 00 00 	movl   $0x7,(%esp)
  103315:	e8 a6 ce ff ff       	call   1001c0 <terminal_setcolor>
  10331a:	c7 04 24 e1 3a 11 00 	movl   $0x113ae1,(%esp)
  103321:	e8 ea d2 ff ff       	call   100610 <terminal_printf>
  103326:	c7 04 24 0f 00 00 00 	movl   $0xf,(%esp)
  10332d:	e8 8e ce ff ff       	call   1001c0 <terminal_setcolor>
  103332:	5d                   	pop    %ebp
  103333:	58                   	pop    %eax
  103334:	68 e7 3a 11 00       	push   $0x113ae7
  103339:	68 17 3a 11 00       	push   $0x113a17
  10333e:	e8 cd d2 ff ff       	call   100610 <terminal_printf>
  103343:	c7 04 24 07 00 00 00 	movl   $0x7,(%esp)
  10334a:	e8 71 ce ff ff       	call   1001c0 <terminal_setcolor>
  10334f:	c7 04 24 ed 3a 11 00 	movl   $0x113aed,(%esp)
  103356:	e8 b5 d2 ff ff       	call   100610 <terminal_printf>
  10335b:	c7 04 24 0a 00 00 00 	movl   $0xa,(%esp)
  103362:	e8 69 ce ff ff       	call   1001d0 <terminal_putchar>
  103367:	83 c4 10             	add    $0x10,%esp
  10336a:	e9 64 fb ff ff       	jmp    102ed3 <execute+0x33>
  10336f:	90                   	nop
  103370:	e8 0b ce ff ff       	call   100180 <terminal_clear>
  103375:	e9 59 fb ff ff       	jmp    102ed3 <execute+0x33>
  10337a:	83 ec 08             	sub    $0x8,%esp
  10337d:	68 f9 3a 11 00       	push   $0x113af9
  103382:	56                   	push   %esi
  103383:	e8 c8 e5 ff ff       	call   101950 <strcmp>
  103388:	83 c4 10             	add    $0x10,%esp
  10338b:	85 c0                	test   %eax,%eax
  10338d:	0f 84 6d 01 00 00    	je     103500 <execute+0x660>
  103393:	83 ec 08             	sub    $0x8,%esp
  103396:	68 03 3b 11 00       	push   $0x113b03
  10339b:	56                   	push   %esi
  10339c:	e8 af e5 ff ff       	call   101950 <strcmp>
  1033a1:	83 c4 10             	add    $0x10,%esp
  1033a4:	89 c3                	mov    %eax,%ebx
  1033a6:	85 c0                	test   %eax,%eax
  1033a8:	0f 85 bd 01 00 00    	jne    10356b <execute+0x6cb>
  1033ae:	e8 6d f2 ff ff       	call   102620 <pmm_get_max_frames>
  1033b3:	89 c5                	mov    %eax,%ebp
  1033b5:	e8 56 f2 ff ff       	call   102610 <pmm_get_used_frames>
  1033ba:	89 c7                	mov    %eax,%edi
  1033bc:	39 e8                	cmp    %ebp,%eax
  1033be:	0f 83 13 02 00 00    	jae    1035d7 <execute+0x737>
  1033c4:	89 e9                	mov    %ebp,%ecx
  1033c6:	29 c1                	sub    %eax,%ecx
  1033c8:	8d 04 8d 00 00 00 00 	lea    0x0(,%ecx,4),%eax
  1033cf:	89 44 24 08          	mov    %eax,0x8(%esp)
  1033d3:	b8 28 00 00 00       	mov    $0x28,%eax
  1033d8:	89 4c 24 0c          	mov    %ecx,0xc(%esp)
  1033dc:	f7 e7                	mul    %edi
  1033de:	89 2c 24             	mov    %ebp,(%esp)
  1033e1:	c7 44 24 04 00 00 00 	movl   $0x0,0x4(%esp)
  1033e8:	00 
  1033e9:	ff 74 24 04          	push   0x4(%esp)
  1033ed:	ff 74 24 04          	push   0x4(%esp)
  1033f1:	52                   	push   %edx
  1033f2:	50                   	push   %eax
  1033f3:	e8 48 d6 00 00       	call   110a40 <__udivdi3>
  1033f8:	8b 4c 24 1c          	mov    0x1c(%esp),%ecx
  1033fc:	83 c4 10             	add    $0x10,%esp
  1033ff:	89 c6                	mov    %eax,%esi
  103401:	89 0c 24             	mov    %ecx,(%esp)
  103404:	83 ec 0c             	sub    $0xc,%esp
  103407:	6a 0b                	push   $0xb
  103409:	e8 b2 cd ff ff       	call   1001c0 <terminal_setcolor>
  10340e:	c7 04 24 07 3b 11 00 	movl   $0x113b07,(%esp)
  103415:	e8 56 cf ff ff       	call   100370 <terminal_writestring>
  10341a:	c7 04 24 08 00 00 00 	movl   $0x8,(%esp)
  103421:	e8 9a cd ff ff       	call   1001c0 <terminal_setcolor>
  103426:	c7 04 24 fc 48 11 00 	movl   $0x1148fc,(%esp)
  10342d:	e8 3e cf ff ff       	call   100370 <terminal_writestring>
  103432:	8d 04 ad 00 00 00 00 	lea    0x0(,%ebp,4),%eax
  103439:	89 c2                	mov    %eax,%edx
  10343b:	c1 ea 0a             	shr    $0xa,%edx
  10343e:	52                   	push   %edx
  10343f:	50                   	push   %eax
  103440:	55                   	push   %ebp
  103441:	68 78 49 11 00       	push   $0x114978
  103446:	e8 c5 d1 ff ff       	call   100610 <terminal_printf>
  10344b:	83 c4 14             	add    $0x14,%esp
  10344e:	6a 0c                	push   $0xc
  103450:	e8 6b cd ff ff       	call   1001c0 <terminal_setcolor>
  103455:	83 c4 0c             	add    $0xc,%esp
  103458:	8d 04 bd 00 00 00 00 	lea    0x0(,%edi,4),%eax
  10345f:	50                   	push   %eax
  103460:	57                   	push   %edi
  103461:	68 16 3b 11 00       	push   $0x113b16
  103466:	e8 a5 d1 ff ff       	call   100610 <terminal_printf>
  10346b:	c7 04 24 0a 00 00 00 	movl   $0xa,(%esp)
  103472:	e8 49 cd ff ff       	call   1001c0 <terminal_setcolor>
  103477:	83 c4 0c             	add    $0xc,%esp
  10347a:	ff 74 24 0c          	push   0xc(%esp)
  10347e:	8b 4c 24 08          	mov    0x8(%esp),%ecx
  103482:	51                   	push   %ecx
  103483:	68 34 3b 11 00       	push   $0x113b34
  103488:	e8 83 d1 ff ff       	call   100610 <terminal_printf>
  10348d:	c7 04 24 08 00 00 00 	movl   $0x8,(%esp)
  103494:	e8 27 cd ff ff       	call   1001c0 <terminal_setcolor>
  103499:	c7 04 24 fc 48 11 00 	movl   $0x1148fc,(%esp)
  1034a0:	e8 cb ce ff ff       	call   100370 <terminal_writestring>
  1034a5:	c7 04 24 52 3b 11 00 	movl   $0x113b52,(%esp)
  1034ac:	e8 bf ce ff ff       	call   100370 <terminal_writestring>
  1034b1:	83 c4 10             	add    $0x10,%esp
  1034b4:	eb 2b                	jmp    1034e1 <execute+0x641>
  1034b6:	2e 8d b4 26 00 00 00 	lea    %cs:0x0(%esi,%eiz,1),%esi
  1034bd:	00 
  1034be:	66 90                	xchg   %ax,%ax
  1034c0:	83 ec 0c             	sub    $0xc,%esp
  1034c3:	6a 0c                	push   $0xc
  1034c5:	e8 f6 cc ff ff       	call   1001c0 <terminal_setcolor>
  1034ca:	c7 04 24 56 3b 11 00 	movl   $0x113b56,(%esp)
  1034d1:	e8 9a ce ff ff       	call   100370 <terminal_writestring>
  1034d6:	83 c4 10             	add    $0x10,%esp
  1034d9:	83 c3 01             	add    $0x1,%ebx
  1034dc:	83 fb 28             	cmp    $0x28,%ebx
  1034df:	74 34                	je     103515 <execute+0x675>
  1034e1:	39 de                	cmp    %ebx,%esi
  1034e3:	7f db                	jg     1034c0 <execute+0x620>
  1034e5:	83 ec 0c             	sub    $0xc,%esp
  1034e8:	6a 08                	push   $0x8
  1034ea:	e8 d1 cc ff ff       	call   1001c0 <terminal_setcolor>
  1034ef:	c7 04 24 58 3b 11 00 	movl   $0x113b58,(%esp)
  1034f6:	e8 75 ce ff ff       	call   100370 <terminal_writestring>
  1034fb:	83 c4 10             	add    $0x10,%esp
  1034fe:	eb d9                	jmp    1034d9 <execute+0x639>
  103500:	83 ec 0c             	sub    $0xc,%esp
  103503:	68 fc 3a 11 00       	push   $0x113afc
  103508:	e8 f3 9a 00 00       	call   10d000 <elf_load_and_run>
  10350d:	83 c4 10             	add    $0x10,%esp
  103510:	e9 be f9 ff ff       	jmp    102ed3 <execute+0x33>
  103515:	83 ec 0c             	sub    $0xc,%esp
  103518:	6a 08                	push   $0x8
  10351a:	e8 a1 cc ff ff       	call   1001c0 <terminal_setcolor>
  10351f:	c7 04 24 5a 3b 11 00 	movl   $0x113b5a,(%esp)
  103526:	e8 45 ce ff ff       	call   100370 <terminal_writestring>
  10352b:	c7 04 24 07 00 00 00 	movl   $0x7,(%esp)
  103532:	e8 89 cc ff ff       	call   1001c0 <terminal_setcolor>
  103537:	83 c4 10             	add    $0x10,%esp
  10353a:	85 ed                	test   %ebp,%ebp
  10353c:	74 17                	je     103555 <execute+0x6b5>
  10353e:	b8 64 00 00 00       	mov    $0x64,%eax
  103543:	31 db                	xor    %ebx,%ebx
  103545:	f7 e7                	mul    %edi
  103547:	53                   	push   %ebx
  103548:	55                   	push   %ebp
  103549:	52                   	push   %edx
  10354a:	50                   	push   %eax
  10354b:	e8 f0 d4 00 00       	call   110a40 <__udivdi3>
  103550:	83 c4 10             	add    $0x10,%esp
  103553:	89 c5                	mov    %eax,%ebp
  103555:	83 ec 08             	sub    $0x8,%esp
  103558:	55                   	push   %ebp
  103559:	68 5e 3b 11 00       	push   $0x113b5e
  10355e:	e8 ad d0 ff ff       	call   100610 <terminal_printf>
  103563:	83 c4 10             	add    $0x10,%esp
  103566:	e9 68 f9 ff ff       	jmp    102ed3 <execute+0x33>
  10356b:	83 ec 08             	sub    $0x8,%esp
  10356e:	68 65 3b 11 00       	push   $0x113b65
  103573:	56                   	push   %esi
  103574:	e8 d7 e3 ff ff       	call   101950 <strcmp>
  103579:	83 c4 10             	add    $0x10,%esp
  10357c:	85 c0                	test   %eax,%eax
  10357e:	75 70                	jne    1035f0 <execute+0x750>
  103580:	e8 0b f5 ff ff       	call   102a90 <pit_get_seconds>
  103585:	be 89 88 88 88       	mov    $0x88888889,%esi
  10358a:	89 c3                	mov    %eax,%ebx
  10358c:	e8 ef f4 ff ff       	call   102a80 <pit_get_ticks>
  103591:	83 ec 0c             	sub    $0xc,%esp
  103594:	50                   	push   %eax
  103595:	89 d8                	mov    %ebx,%eax
  103597:	f7 e6                	mul    %esi
  103599:	89 d0                	mov    %edx,%eax
  10359b:	89 da                	mov    %ebx,%edx
  10359d:	c1 e8 05             	shr    $0x5,%eax
  1035a0:	6b c0 3c             	imul   $0x3c,%eax,%eax
  1035a3:	29 c2                	sub    %eax,%edx
  1035a5:	b8 c5 b3 a2 91       	mov    $0x91a2b3c5,%eax
  1035aa:	52                   	push   %edx
  1035ab:	f7 e3                	mul    %ebx
  1035ad:	89 d1                	mov    %edx,%ecx
  1035af:	89 da                	mov    %ebx,%edx
  1035b1:	c1 e9 0b             	shr    $0xb,%ecx
  1035b4:	69 c1 10 0e 00 00    	imul   $0xe10,%ecx,%eax
  1035ba:	29 c2                	sub    %eax,%edx
  1035bc:	89 d0                	mov    %edx,%eax
  1035be:	f7 e6                	mul    %esi
  1035c0:	c1 ea 05             	shr    $0x5,%edx
  1035c3:	52                   	push   %edx
  1035c4:	51                   	push   %ecx
  1035c5:	68 a0 49 11 00       	push   $0x1149a0
  1035ca:	e8 41 d0 ff ff       	call   100610 <terminal_printf>
  1035cf:	83 c4 20             	add    $0x20,%esp
  1035d2:	e9 fc f8 ff ff       	jmp    102ed3 <execute+0x33>
  1035d7:	c7 44 24 08 00 00 00 	movl   $0x0,0x8(%esp)
  1035de:	00 
  1035df:	31 c9                	xor    %ecx,%ecx
  1035e1:	31 f6                	xor    %esi,%esi
  1035e3:	85 ed                	test   %ebp,%ebp
  1035e5:	0f 84 16 fe ff ff    	je     103401 <execute+0x561>
  1035eb:	e9 e3 fd ff ff       	jmp    1033d3 <execute+0x533>
  1035f0:	83 ec 08             	sub    $0x8,%esp
  1035f3:	68 6c 3b 11 00       	push   $0x113b6c
  1035f8:	56                   	push   %esi
  1035f9:	e8 52 e3 ff ff       	call   101950 <strcmp>
  1035fe:	83 c4 10             	add    $0x10,%esp
  103601:	85 c0                	test   %eax,%eax
  103603:	75 22                	jne    103627 <execute+0x787>
  103605:	83 ec 0c             	sub    $0xc,%esp
  103608:	8d 5c 24 1c          	lea    0x1c(%esp),%ebx
  10360c:	53                   	push   %ebx
  10360d:	e8 7e f6 ff ff       	call   102c90 <rtc_datetime_str>
  103612:	58                   	pop    %eax
  103613:	5a                   	pop    %edx
  103614:	53                   	push   %ebx
  103615:	68 ec 39 11 00       	push   $0x1139ec
  10361a:	e8 f1 cf ff ff       	call   100610 <terminal_printf>
  10361f:	83 c4 10             	add    $0x10,%esp
  103622:	e9 ac f8 ff ff       	jmp    102ed3 <execute+0x33>
  103627:	83 ec 08             	sub    $0x8,%esp
  10362a:	68 41 3d 11 00       	push   $0x113d41
  10362f:	56                   	push   %esi
  103630:	e8 1b e3 ff ff       	call   101950 <strcmp>
  103635:	83 c4 10             	add    $0x10,%esp
  103638:	85 c0                	test   %eax,%eax
  10363a:	75 0a                	jne    103646 <execute+0x7a6>
  10363c:	e8 4f 0d 00 00       	call   104390 <tar_ls>
  103641:	e9 8d f8 ff ff       	jmp    102ed3 <execute+0x33>
  103646:	83 ec 08             	sub    $0x8,%esp
  103649:	68 71 3b 11 00       	push   $0x113b71
  10364e:	56                   	push   %esi
  10364f:	e8 fc e2 ff ff       	call   101950 <strcmp>
  103654:	83 c4 10             	add    $0x10,%esp
  103657:	85 c0                	test   %eax,%eax
  103659:	0f 85 dc 00 00 00    	jne    10373b <execute+0x89b>
  10365f:	83 ec 0c             	sub    $0xc,%esp
  103662:	bb 94 26 14 00       	mov    $0x142694,%ebx
  103667:	bf f4 28 15 00       	mov    $0x1528f4,%edi
  10366c:	6a 0b                	push   $0xb
  10366e:	e8 4d cb ff ff       	call   1001c0 <terminal_setcolor>
  103673:	c7 04 24 74 3b 11 00 	movl   $0x113b74,(%esp)
  10367a:	e8 f1 cc ff ff       	call   100370 <terminal_writestring>
  10367f:	c7 04 24 08 00 00 00 	movl   $0x8,(%esp)
  103686:	e8 35 cb ff ff       	call   1001c0 <terminal_setcolor>
  10368b:	c7 04 24 cc 49 11 00 	movl   $0x1149cc,(%esp)
  103692:	e8 d9 cc ff ff       	call   100370 <terminal_writestring>
  103697:	e8 84 10 00 00       	call   104720 <task_count>
  10369c:	83 c4 10             	add    $0x10,%esp
  10369f:	89 c6                	mov    %eax,%esi
  1036a1:	eb 59                	jmp    1036fc <execute+0x85c>
  1036a3:	83 ec 0c             	sub    $0xc,%esp
  1036a6:	6a 0a                	push   $0xa
  1036a8:	e8 13 cb ff ff       	call   1001c0 <terminal_setcolor>
  1036ad:	83 c4 10             	add    $0x10,%esp
  1036b0:	8b 53 f8             	mov    -0x8(%ebx),%edx
  1036b3:	b8 ce 39 11 00       	mov    $0x1139ce,%eax
  1036b8:	83 fa 03             	cmp    $0x3,%edx
  1036bb:	77 07                	ja     1036c4 <execute+0x824>
  1036bd:	8b 04 95 20 22 11 00 	mov    0x112220(,%edx,4),%eax
  1036c4:	83 ec 08             	sub    $0x8,%esp
  1036c7:	50                   	push   %eax
  1036c8:	68 93 3b 11 00       	push   $0x113b93
  1036cd:	e8 3e cf ff ff       	call   100610 <terminal_printf>
  1036d2:	c7 04 24 07 00 00 00 	movl   $0x7,(%esp)
  1036d9:	e8 e2 ca ff ff       	call   1001c0 <terminal_setcolor>
  1036de:	58                   	pop    %eax
  1036df:	5a                   	pop    %edx
  1036e0:	53                   	push   %ebx
  1036e1:	68 ee 39 11 00       	push   $0x1139ee
  1036e6:	e8 25 cf ff ff       	call   100610 <terminal_printf>
  1036eb:	83 c4 10             	add    $0x10,%esp
  1036ee:	81 c3 4c 20 00 00    	add    $0x204c,%ebx
  1036f4:	39 df                	cmp    %ebx,%edi
  1036f6:	0f 84 8d 00 00 00    	je     103789 <execute+0x8e9>
  1036fc:	83 7b f8 03          	cmpl   $0x3,-0x8(%ebx)
  103700:	74 ec                	je     1036ee <execute+0x84e>
  103702:	83 ec 0c             	sub    $0xc,%esp
  103705:	6a 0f                	push   $0xf
  103707:	e8 b4 ca ff ff       	call   1001c0 <terminal_setcolor>
  10370c:	59                   	pop    %ecx
  10370d:	5d                   	pop    %ebp
  10370e:	ff 73 f4             	push   -0xc(%ebx)
  103711:	68 8b 3b 11 00       	push   $0x113b8b
  103716:	e8 f5 ce ff ff       	call   100610 <terminal_printf>
  10371b:	8b 43 f8             	mov    -0x8(%ebx),%eax
  10371e:	83 c4 10             	add    $0x10,%esp
  103721:	85 c0                	test   %eax,%eax
  103723:	0f 84 7a ff ff ff    	je     1036a3 <execute+0x803>
  103729:	83 ec 0c             	sub    $0xc,%esp
  10372c:	6a 07                	push   $0x7
  10372e:	e8 8d ca ff ff       	call   1001c0 <terminal_setcolor>
  103733:	83 c4 10             	add    $0x10,%esp
  103736:	e9 75 ff ff ff       	jmp    1036b0 <execute+0x810>
  10373b:	57                   	push   %edi
  10373c:	6a 06                	push   $0x6
  10373e:	68 ae 3b 11 00       	push   $0x113bae
  103743:	56                   	push   %esi
  103744:	e8 47 e2 ff ff       	call   101990 <strncmp>
  103749:	83 c4 10             	add    $0x10,%esp
  10374c:	85 c0                	test   %eax,%eax
  10374e:	75 4e                	jne    10379e <execute+0x8fe>
  103750:	83 c6 06             	add    $0x6,%esi
  103753:	52                   	push   %edx
  103754:	6a 0a                	push   $0xa
  103756:	6a 00                	push   $0x0
  103758:	56                   	push   %esi
  103759:	e8 22 e4 ff ff       	call   101b80 <strtol>
  10375e:	59                   	pop    %ecx
  10375f:	5e                   	pop    %esi
  103760:	50                   	push   %eax
  103761:	89 c3                	mov    %eax,%ebx
  103763:	68 b5 3b 11 00       	push   $0x113bb5
  103768:	e8 a3 ce ff ff       	call   100610 <terminal_printf>
  10376d:	89 1c 24             	mov    %ebx,(%esp)
  103770:	e8 2b 15 00 00       	call   104ca0 <task_sleep>
  103775:	c7 04 24 ca 3b 11 00 	movl   $0x113bca,(%esp)
  10377c:	e8 ef cb ff ff       	call   100370 <terminal_writestring>
  103781:	83 c4 10             	add    $0x10,%esp
  103784:	e9 4a f7 ff ff       	jmp    102ed3 <execute+0x33>
  103789:	55                   	push   %ebp
  10378a:	55                   	push   %ebp
  10378b:	56                   	push   %esi
  10378c:	68 98 3b 11 00       	push   $0x113b98
  103791:	e8 7a ce ff ff       	call   100610 <terminal_printf>
  103796:	83 c4 10             	add    $0x10,%esp
  103799:	e9 35 f7 ff ff       	jmp    102ed3 <execute+0x33>
  10379e:	50                   	push   %eax
  10379f:	50                   	push   %eax
  1037a0:	68 d3 3b 11 00       	push   $0x113bd3
  1037a5:	56                   	push   %esi
  1037a6:	e8 a5 e1 ff ff       	call   101950 <strcmp>
  1037ab:	83 c4 10             	add    $0x10,%esp
  1037ae:	85 c0                	test   %eax,%eax
  1037b0:	74 49                	je     1037fb <execute+0x95b>
  1037b2:	50                   	push   %eax
  1037b3:	50                   	push   %eax
  1037b4:	68 ea 3b 11 00       	push   $0x113bea
  1037b9:	56                   	push   %esi
  1037ba:	e8 91 e1 ff ff       	call   101950 <strcmp>
  1037bf:	83 c4 10             	add    $0x10,%esp
  1037c2:	85 c0                	test   %eax,%eax
  1037c4:	74 7e                	je     103844 <execute+0x9a4>
  1037c6:	50                   	push   %eax
  1037c7:	6a 05                	push   $0x5
  1037c9:	68 ef 3b 11 00       	push   $0x113bef
  1037ce:	56                   	push   %esi
  1037cf:	e8 bc e1 ff ff       	call   101990 <strncmp>
  1037d4:	83 c4 10             	add    $0x10,%esp
  1037d7:	85 c0                	test   %eax,%eax
  1037d9:	75 40                	jne    10381b <execute+0x97b>
  1037db:	83 ec 0c             	sub    $0xc,%esp
  1037de:	83 c6 05             	add    $0x5,%esi
  1037e1:	56                   	push   %esi
  1037e2:	e8 89 cb ff ff       	call   100370 <terminal_writestring>
  1037e7:	c7 04 24 0a 00 00 00 	movl   $0xa,(%esp)
  1037ee:	e8 dd c9 ff ff       	call   1001d0 <terminal_putchar>
  1037f3:	83 c4 10             	add    $0x10,%esp
  1037f6:	e9 d8 f6 ff ff       	jmp    102ed3 <execute+0x33>
  1037fb:	83 ec 0c             	sub    $0xc,%esp
  1037fe:	68 da 3b 11 00       	push   $0x113bda
  103803:	e8 68 cb ff ff       	call   100370 <terminal_writestring>
  103808:	83 c4 10             	add    $0x10,%esp
  10380b:	e4 64                	in     $0x64,%al
  10380d:	a8 02                	test   $0x2,%al
  10380f:	75 fa                	jne    10380b <execute+0x96b>
  103811:	b8 fe ff ff ff       	mov    $0xfffffffe,%eax
  103816:	e6 64                	out    %al,$0x64
  103818:	f4                   	hlt
  103819:	eb fd                	jmp    103818 <execute+0x978>
  10381b:	50                   	push   %eax
  10381c:	6a 04                	push   $0x4
  10381e:	68 f5 3b 11 00       	push   $0x113bf5
  103823:	56                   	push   %esi
  103824:	e8 67 e1 ff ff       	call   101990 <strncmp>
  103829:	83 c4 10             	add    $0x10,%esp
  10382c:	85 c0                	test   %eax,%eax
  10382e:	75 28                	jne    103858 <execute+0x9b8>
  103830:	83 ec 0c             	sub    $0xc,%esp
  103833:	83 c6 04             	add    $0x4,%esi
  103836:	56                   	push   %esi
  103837:	e8 f4 0b 00 00       	call   104430 <tar_cat>
  10383c:	83 c4 10             	add    $0x10,%esp
  10383f:	e9 8f f6 ff ff       	jmp    102ed3 <execute+0x33>
  103844:	83 ec 0c             	sub    $0xc,%esp
  103847:	68 24 4a 11 00       	push   $0x114a24
  10384c:	e8 1f cb ff ff       	call   100370 <terminal_writestring>
  103851:	fa                   	cli
  103852:	83 c4 10             	add    $0x10,%esp
  103855:	f4                   	hlt
  103856:	eb fd                	jmp    103855 <execute+0x9b5>
  103858:	50                   	push   %eax
  103859:	6a 05                	push   $0x5
  10385b:	68 fa 3b 11 00       	push   $0x113bfa
  103860:	56                   	push   %esi
  103861:	e8 2a e1 ff ff       	call   101990 <strncmp>
  103866:	83 c4 10             	add    $0x10,%esp
  103869:	85 c0                	test   %eax,%eax
  10386b:	0f 85 c4 00 00 00    	jne    103935 <execute+0xa95>
  103871:	83 c6 05             	add    $0x5,%esi
  103874:	89 74 24 10          	mov    %esi,0x10(%esp)
  103878:	55                   	push   %ebp
  103879:	6a 0a                	push   $0xa
  10387b:	8d 5c 24 18          	lea    0x18(%esp),%ebx
  10387f:	53                   	push   %ebx
  103880:	56                   	push   %esi
  103881:	e8 fa e2 ff ff       	call   101b80 <strtol>
  103886:	89 c6                	mov    %eax,%esi
  103888:	8b 44 24 20          	mov    0x20(%esp),%eax
  10388c:	83 c4 10             	add    $0x10,%esp
  10388f:	80 38 00             	cmpb   $0x0,(%eax)
  103892:	0f 84 88 00 00 00    	je     103920 <execute+0xa80>
  103898:	80 38 20             	cmpb   $0x20,(%eax)
  10389b:	8d 50 01             	lea    0x1(%eax),%edx
  10389e:	75 0f                	jne    1038af <execute+0xa0f>
  1038a0:	89 54 24 10          	mov    %edx,0x10(%esp)
  1038a4:	89 d0                	mov    %edx,%eax
  1038a6:	83 c2 01             	add    $0x1,%edx
  1038a9:	80 7a ff 20          	cmpb   $0x20,-0x1(%edx)
  1038ad:	74 f1                	je     1038a0 <execute+0xa00>
  1038af:	8d 50 01             	lea    0x1(%eax),%edx
  1038b2:	89 54 24 10          	mov    %edx,0x10(%esp)
  1038b6:	80 78 01 20          	cmpb   $0x20,0x1(%eax)
  1038ba:	0f b6 38             	movzbl (%eax),%edi
  1038bd:	75 12                	jne    1038d1 <execute+0xa31>
  1038bf:	83 c0 02             	add    $0x2,%eax
  1038c2:	89 44 24 10          	mov    %eax,0x10(%esp)
  1038c6:	89 c2                	mov    %eax,%edx
  1038c8:	83 c0 01             	add    $0x1,%eax
  1038cb:	80 78 ff 20          	cmpb   $0x20,-0x1(%eax)
  1038cf:	74 f1                	je     1038c2 <execute+0xa22>
  1038d1:	83 ec 04             	sub    $0x4,%esp
  1038d4:	6a 0a                	push   $0xa
  1038d6:	53                   	push   %ebx
  1038d7:	52                   	push   %edx
  1038d8:	e8 a3 e2 ff ff       	call   101b80 <strtol>
  1038dd:	83 c4 10             	add    $0x10,%esp
  1038e0:	89 c1                	mov    %eax,%ecx
  1038e2:	89 f8                	mov    %edi,%eax
  1038e4:	3c 2b                	cmp    $0x2b,%al
  1038e6:	0f 84 d5 02 00 00    	je     103bc1 <execute+0xd21>
  1038ec:	3c 2d                	cmp    $0x2d,%al
  1038ee:	0f 84 c6 02 00 00    	je     103bba <execute+0xd1a>
  1038f4:	3c 2a                	cmp    $0x2a,%al
  1038f6:	0f 84 cc 02 00 00    	je     103bc8 <execute+0xd28>
  1038fc:	3c 2f                	cmp    $0x2f,%al
  1038fe:	0f 85 a1 02 00 00    	jne    103ba5 <execute+0xd05>
  103904:	85 c9                	test   %ecx,%ecx
  103906:	0f 84 0e 02 00 00    	je     103b1a <execute+0xc7a>
  10390c:	89 f0                	mov    %esi,%eax
  10390e:	99                   	cltd
  10390f:	f7 f9                	idiv   %ecx
  103911:	89 c6                	mov    %eax,%esi
  103913:	8b 44 24 10          	mov    0x10(%esp),%eax
  103917:	80 38 00             	cmpb   $0x0,(%eax)
  10391a:	0f 85 78 ff ff ff    	jne    103898 <execute+0x9f8>
  103920:	57                   	push   %edi
  103921:	57                   	push   %edi
  103922:	56                   	push   %esi
  103923:	68 28 3c 11 00       	push   $0x113c28
  103928:	e8 e3 cc ff ff       	call   100610 <terminal_printf>
  10392d:	83 c4 10             	add    $0x10,%esp
  103930:	e9 9e f5 ff ff       	jmp    102ed3 <execute+0x33>
  103935:	53                   	push   %ebx
  103936:	6a 07                	push   $0x7
  103938:	68 30 3c 11 00       	push   $0x113c30
  10393d:	56                   	push   %esi
  10393e:	e8 4d e0 ff ff       	call   101990 <strncmp>
  103943:	83 c4 10             	add    $0x10,%esp
  103946:	85 c0                	test   %eax,%eax
  103948:	0f 85 4b 01 00 00    	jne    103a99 <execute+0xbf9>
  10394e:	80 7e 07 00          	cmpb   $0x0,0x7(%esi)
  103952:	b8 d6 39 11 00       	mov    $0x1139d6,%eax
  103957:	74 03                	je     10395c <execute+0xabc>
  103959:	8d 46 08             	lea    0x8(%esi),%eax
  10395c:	51                   	push   %ecx
  10395d:	be 40 00 00 00       	mov    $0x40,%esi
  103962:	6a 00                	push   $0x0
  103964:	8d 54 24 18          	lea    0x18(%esp),%edx
  103968:	52                   	push   %edx
  103969:	50                   	push   %eax
  10396a:	e8 11 e2 ff ff       	call   101b80 <strtol>
  10396f:	89 c3                	mov    %eax,%ebx
  103971:	8b 44 24 20          	mov    0x20(%esp),%eax
  103975:	83 c4 10             	add    $0x10,%esp
  103978:	80 38 00             	cmpb   $0x0,(%eax)
  10397b:	0f 85 91 00 00 00    	jne    103a12 <execute+0xb72>
  103981:	8d 04 33             	lea    (%ebx,%esi,1),%eax
  103984:	31 ff                	xor    %edi,%edi
  103986:	89 04 24             	mov    %eax,(%esp)
  103989:	39 f7                	cmp    %esi,%edi
  10398b:	0f 83 42 f5 ff ff    	jae    102ed3 <execute+0x33>
  103991:	50                   	push   %eax
  103992:	31 ed                	xor    %ebp,%ebp
  103994:	50                   	push   %eax
  103995:	53                   	push   %ebx
  103996:	68 38 3c 11 00       	push   $0x113c38
  10399b:	e8 70 cc ff ff       	call   100610 <terminal_printf>
  1039a0:	83 c4 10             	add    $0x10,%esp
  1039a3:	8d 47 08             	lea    0x8(%edi),%eax
  1039a6:	89 44 24 08          	mov    %eax,0x8(%esp)
  1039aa:	eb 1d                	jmp    1039c9 <execute+0xb29>
  1039ac:	83 ec 0c             	sub    $0xc,%esp
  1039af:	68 d2 39 11 00       	push   $0x1139d2
  1039b4:	e8 b7 c9 ff ff       	call   100370 <terminal_writestring>
  1039b9:	83 c4 10             	add    $0x10,%esp
  1039bc:	83 fd 07             	cmp    $0x7,%ebp
  1039bf:	74 27                	je     1039e8 <execute+0xb48>
  1039c1:	83 c5 01             	add    $0x1,%ebp
  1039c4:	83 fd 10             	cmp    $0x10,%ebp
  1039c7:	74 68                	je     103a31 <execute+0xb91>
  1039c9:	8d 04 2f             	lea    (%edi,%ebp,1),%eax
  1039cc:	39 f0                	cmp    %esi,%eax
  1039ce:	73 dc                	jae    1039ac <execute+0xb0c>
  1039d0:	0f b6 44 1d 00       	movzbl 0x0(%ebp,%ebx,1),%eax
  1039d5:	83 ec 08             	sub    $0x8,%esp
  1039d8:	50                   	push   %eax
  1039d9:	68 41 3c 11 00       	push   $0x113c41
  1039de:	e8 2d cc ff ff       	call   100610 <terminal_printf>
  1039e3:	83 c4 10             	add    $0x10,%esp
  1039e6:	eb d4                	jmp    1039bc <execute+0xb1c>
  1039e8:	83 ec 0c             	sub    $0xc,%esp
  1039eb:	bd 08 00 00 00       	mov    $0x8,%ebp
  1039f0:	6a 20                	push   $0x20
  1039f2:	e8 d9 c7 ff ff       	call   1001d0 <terminal_putchar>
  1039f7:	83 c4 10             	add    $0x10,%esp
  1039fa:	39 74 24 08          	cmp    %esi,0x8(%esp)
  1039fe:	72 d0                	jb     1039d0 <execute+0xb30>
  103a00:	83 ec 0c             	sub    $0xc,%esp
  103a03:	68 d2 39 11 00       	push   $0x1139d2
  103a08:	e8 63 c9 ff ff       	call   100370 <terminal_writestring>
  103a0d:	83 c4 10             	add    $0x10,%esp
  103a10:	eb af                	jmp    1039c1 <execute+0xb21>
  103a12:	52                   	push   %edx
  103a13:	6a 00                	push   $0x0
  103a15:	6a 00                	push   $0x0
  103a17:	50                   	push   %eax
  103a18:	e8 63 e1 ff ff       	call   101b80 <strtol>
  103a1d:	89 c6                	mov    %eax,%esi
  103a1f:	b8 00 01 00 00       	mov    $0x100,%eax
  103a24:	39 c6                	cmp    %eax,%esi
  103a26:	0f 47 f0             	cmova  %eax,%esi
  103a29:	83 c4 10             	add    $0x10,%esp
  103a2c:	e9 50 ff ff ff       	jmp    103981 <execute+0xae1>
  103a31:	83 ec 0c             	sub    $0xc,%esp
  103a34:	89 dd                	mov    %ebx,%ebp
  103a36:	68 47 3c 11 00       	push   $0x113c47
  103a3b:	e8 30 c9 ff ff       	call   100370 <terminal_writestring>
  103a40:	83 c4 10             	add    $0x10,%esp
  103a43:	8d 53 0f             	lea    0xf(%ebx),%edx
  103a46:	89 5c 24 08          	mov    %ebx,0x8(%esp)
  103a4a:	89 d3                	mov    %edx,%ebx
  103a4c:	eb 0a                	jmp    103a58 <execute+0xbb8>
  103a4e:	8b 04 24             	mov    (%esp),%eax
  103a51:	83 c5 01             	add    $0x1,%ebp
  103a54:	39 c5                	cmp    %eax,%ebp
  103a56:	74 22                	je     103a7a <execute+0xbda>
  103a58:	0f b6 45 00          	movzbl 0x0(%ebp),%eax
  103a5c:	8d 48 e0             	lea    -0x20(%eax),%ecx
  103a5f:	80 f9 5f             	cmp    $0x5f,%cl
  103a62:	b9 2e 00 00 00       	mov    $0x2e,%ecx
  103a67:	0f 43 c1             	cmovae %ecx,%eax
  103a6a:	83 ec 0c             	sub    $0xc,%esp
  103a6d:	50                   	push   %eax
  103a6e:	e8 5d c7 ff ff       	call   1001d0 <terminal_putchar>
  103a73:	83 c4 10             	add    $0x10,%esp
  103a76:	39 dd                	cmp    %ebx,%ebp
  103a78:	75 d4                	jne    103a4e <execute+0xbae>
  103a7a:	8b 5c 24 08          	mov    0x8(%esp),%ebx
  103a7e:	83 ec 0c             	sub    $0xc,%esp
  103a81:	83 c7 10             	add    $0x10,%edi
  103a84:	68 4a 3c 11 00       	push   $0x113c4a
  103a89:	83 c3 10             	add    $0x10,%ebx
  103a8c:	e8 df c8 ff ff       	call   100370 <terminal_writestring>
  103a91:	83 c4 10             	add    $0x10,%esp
  103a94:	e9 f0 fe ff ff       	jmp    103989 <execute+0xae9>
  103a99:	50                   	push   %eax
  103a9a:	6a 06                	push   $0x6
  103a9c:	68 4d 3c 11 00       	push   $0x113c4d
  103aa1:	56                   	push   %esi
  103aa2:	e8 e9 de ff ff       	call   101990 <strncmp>
  103aa7:	83 c4 10             	add    $0x10,%esp
  103aaa:	85 c0                	test   %eax,%eax
  103aac:	0f 85 a2 00 00 00    	jne    103b54 <execute+0xcb4>
  103ab2:	50                   	push   %eax
  103ab3:	83 c6 06             	add    $0x6,%esi
  103ab6:	6a 0a                	push   $0xa
  103ab8:	8d 44 24 18          	lea    0x18(%esp),%eax
  103abc:	50                   	push   %eax
  103abd:	56                   	push   %esi
  103abe:	e8 bd e0 ff ff       	call   101b80 <strtol>
  103ac3:	83 c4 0c             	add    $0xc,%esp
  103ac6:	6a 0a                	push   $0xa
  103ac8:	89 c3                	mov    %eax,%ebx
  103aca:	6a 00                	push   $0x0
  103acc:	ff 74 24 1c          	push   0x1c(%esp)
  103ad0:	e8 ab e0 ff ff       	call   101b80 <strtol>
  103ad5:	89 da                	mov    %ebx,%edx
  103ad7:	83 c4 10             	add    $0x10,%esp
  103ada:	09 c2                	or     %eax,%edx
  103adc:	83 fa 0f             	cmp    $0xf,%edx
  103adf:	76 4e                	jbe    103b2f <execute+0xc8f>
  103ae1:	83 ec 0c             	sub    $0xc,%esp
  103ae4:	68 4c 4a 11 00       	push   $0x114a4c
  103ae9:	e8 82 c8 ff ff       	call   100370 <terminal_writestring>
  103aee:	c7 04 24 70 4a 11 00 	movl   $0x114a70,(%esp)
  103af5:	e8 76 c8 ff ff       	call   100370 <terminal_writestring>
  103afa:	c7 04 24 ac 4a 11 00 	movl   $0x114aac,(%esp)
  103b01:	e8 6a c8 ff ff       	call   100370 <terminal_writestring>
  103b06:	c7 04 24 e0 4a 11 00 	movl   $0x114ae0,(%esp)
  103b0d:	e8 5e c8 ff ff       	call   100370 <terminal_writestring>
  103b12:	83 c4 10             	add    $0x10,%esp
  103b15:	e9 b9 f3 ff ff       	jmp    102ed3 <execute+0x33>
  103b1a:	83 ec 0c             	sub    $0xc,%esp
  103b1d:	68 00 3c 11 00       	push   $0x113c00
  103b22:	e8 49 c8 ff ff       	call   100370 <terminal_writestring>
  103b27:	83 c4 10             	add    $0x10,%esp
  103b2a:	e9 a4 f3 ff ff       	jmp    102ed3 <execute+0x33>
  103b2f:	c1 e0 04             	shl    $0x4,%eax
  103b32:	83 ec 0c             	sub    $0xc,%esp
  103b35:	09 d8                	or     %ebx,%eax
  103b37:	0f b6 c0             	movzbl %al,%eax
  103b3a:	50                   	push   %eax
  103b3b:	e8 80 c6 ff ff       	call   1001c0 <terminal_setcolor>
  103b40:	c7 04 24 54 3c 11 00 	movl   $0x113c54,(%esp)
  103b47:	e8 24 c8 ff ff       	call   100370 <terminal_writestring>
  103b4c:	83 c4 10             	add    $0x10,%esp
  103b4f:	e9 7f f3 ff ff       	jmp    102ed3 <execute+0x33>
  103b54:	50                   	push   %eax
  103b55:	6a 07                	push   $0x7
  103b57:	68 66 3c 11 00       	push   $0x113c66
  103b5c:	56                   	push   %esi
  103b5d:	e8 2e de ff ff       	call   101990 <strncmp>
  103b62:	83 c4 10             	add    $0x10,%esp
  103b65:	85 c0                	test   %eax,%eax
  103b67:	75 67                	jne    103bd0 <execute+0xd30>
  103b69:	83 c6 07             	add    $0x7,%esi
  103b6c:	57                   	push   %edi
  103b6d:	6a 0a                	push   $0xa
  103b6f:	6a 00                	push   $0x0
  103b71:	56                   	push   %esi
  103b72:	e8 09 e0 ff ff       	call   101b80 <strtol>
  103b77:	5d                   	pop    %ebp
  103b78:	89 c3                	mov    %eax,%ebx
  103b7a:	58                   	pop    %eax
  103b7b:	8d 74 24 18          	lea    0x18(%esp),%esi
  103b7f:	56                   	push   %esi
  103b80:	53                   	push   %ebx
  103b81:	e8 da 76 00 00       	call   10b260 <ata_read_sector>
  103b86:	c6 84 24 1f 02 00 00 	movb   $0x0,0x21f(%esp)
  103b8d:	00 
  103b8e:	83 c4 0c             	add    $0xc,%esp
  103b91:	56                   	push   %esi
  103b92:	53                   	push   %ebx
  103b93:	68 6e 3c 11 00       	push   $0x113c6e
  103b98:	e8 73 ca ff ff       	call   100610 <terminal_printf>
  103b9d:	83 c4 10             	add    $0x10,%esp
  103ba0:	e9 2e f3 ff ff       	jmp    102ed3 <execute+0x33>
  103ba5:	83 ec 0c             	sub    $0xc,%esp
  103ba8:	68 14 3c 11 00       	push   $0x113c14
  103bad:	e8 be c7 ff ff       	call   100370 <terminal_writestring>
  103bb2:	83 c4 10             	add    $0x10,%esp
  103bb5:	e9 19 f3 ff ff       	jmp    102ed3 <execute+0x33>
  103bba:	29 ce                	sub    %ecx,%esi
  103bbc:	e9 52 fd ff ff       	jmp    103913 <execute+0xa73>
  103bc1:	01 ce                	add    %ecx,%esi
  103bc3:	e9 4b fd ff ff       	jmp    103913 <execute+0xa73>
  103bc8:	0f af f1             	imul   %ecx,%esi
  103bcb:	e9 43 fd ff ff       	jmp    103913 <execute+0xa73>
  103bd0:	53                   	push   %ebx
  103bd1:	6a 08                	push   $0x8
  103bd3:	68 7f 3c 11 00       	push   $0x113c7f
  103bd8:	56                   	push   %esi
  103bd9:	e8 b2 dd ff ff       	call   101990 <strncmp>
  103bde:	83 c4 10             	add    $0x10,%esp
  103be1:	85 c0                	test   %eax,%eax
  103be3:	75 51                	jne    103c36 <execute+0xd96>
  103be5:	0f b6 46 08          	movzbl 0x8(%esi),%eax
  103be9:	8d 56 08             	lea    0x8(%esi),%edx
  103bec:	83 e8 30             	sub    $0x30,%eax
  103bef:	3c 09                	cmp    $0x9,%al
  103bf1:	0f 86 97 00 00 00    	jbe    103c8e <execute+0xdee>
  103bf7:	be 01 00 00 00       	mov    $0x1,%esi
  103bfc:	8d 5c 24 10          	lea    0x10(%esp),%ebx
  103c00:	89 df                	mov    %ebx,%edi
  103c02:	31 c0                	xor    %eax,%eax
  103c04:	b9 80 00 00 00       	mov    $0x80,%ecx
  103c09:	f3 ab                	rep stos %eax,%es:(%edi)
  103c0b:	53                   	push   %ebx
  103c0c:	53                   	push   %ebx
  103c0d:	52                   	push   %edx
  103c0e:	8d 5c 24 1c          	lea    0x1c(%esp),%ebx
  103c12:	53                   	push   %ebx
  103c13:	e8 38 de ff ff       	call   101a50 <strcpy>
  103c18:	5f                   	pop    %edi
  103c19:	5d                   	pop    %ebp
  103c1a:	53                   	push   %ebx
  103c1b:	56                   	push   %esi
  103c1c:	e8 df 76 00 00       	call   10b300 <ata_write_sector>
  103c21:	58                   	pop    %eax
  103c22:	5a                   	pop    %edx
  103c23:	56                   	push   %esi
  103c24:	68 88 3c 11 00       	push   $0x113c88
  103c29:	e8 e2 c9 ff ff       	call   100610 <terminal_printf>
  103c2e:	83 c4 10             	add    $0x10,%esp
  103c31:	e9 9d f2 ff ff       	jmp    102ed3 <execute+0x33>
  103c36:	51                   	push   %ecx
  103c37:	51                   	push   %ecx
  103c38:	68 9f 3c 11 00       	push   $0x113c9f
  103c3d:	56                   	push   %esi
  103c3e:	e8 0d dd ff ff       	call   101950 <strcmp>
  103c43:	83 c4 10             	add    $0x10,%esp
  103c46:	89 c7                	mov    %eax,%edi
  103c48:	85 c0                	test   %eax,%eax
  103c4a:	75 68                	jne    103cb4 <execute+0xe14>
  103c4c:	83 ec 0c             	sub    $0xc,%esp
  103c4f:	8d 5c 24 1c          	lea    0x1c(%esp),%ebx
  103c53:	53                   	push   %ebx
  103c54:	e8 27 7a 00 00       	call   10b680 <fs_list_files>
  103c59:	89 c6                	mov    %eax,%esi
  103c5b:	58                   	pop    %eax
  103c5c:	5a                   	pop    %edx
  103c5d:	56                   	push   %esi
  103c5e:	68 a4 3c 11 00       	push   $0x113ca4
  103c63:	e8 a8 c9 ff ff       	call   100610 <terminal_printf>
  103c68:	83 c4 10             	add    $0x10,%esp
  103c6b:	eb 18                	jmp    103c85 <execute+0xde5>
  103c6d:	55                   	push   %ebp
  103c6e:	83 c7 01             	add    $0x1,%edi
  103c71:	ff 73 10             	push   0x10(%ebx)
  103c74:	53                   	push   %ebx
  103c75:	83 c3 14             	add    $0x14,%ebx
  103c78:	68 b7 3c 11 00       	push   $0x113cb7
  103c7d:	e8 8e c9 ff ff       	call   100610 <terminal_printf>
  103c82:	83 c4 10             	add    $0x10,%esp
  103c85:	39 f7                	cmp    %esi,%edi
  103c87:	7c e4                	jl     103c6d <execute+0xdcd>
  103c89:	e9 45 f2 ff ff       	jmp    102ed3 <execute+0x33>
  103c8e:	51                   	push   %ecx
  103c8f:	6a 0a                	push   $0xa
  103c91:	8d 5c 24 18          	lea    0x18(%esp),%ebx
  103c95:	53                   	push   %ebx
  103c96:	52                   	push   %edx
  103c97:	e8 e4 de ff ff       	call   101b80 <strtol>
  103c9c:	8b 54 24 20          	mov    0x20(%esp),%edx
  103ca0:	83 c4 10             	add    $0x10,%esp
  103ca3:	89 c6                	mov    %eax,%esi
  103ca5:	eb 03                	jmp    103caa <execute+0xe0a>
  103ca7:	83 c2 01             	add    $0x1,%edx
  103caa:	80 3a 20             	cmpb   $0x20,(%edx)
  103cad:	74 f8                	je     103ca7 <execute+0xe07>
  103caf:	e9 4c ff ff ff       	jmp    103c00 <execute+0xd60>
  103cb4:	51                   	push   %ecx
  103cb5:	6a 06                	push   $0x6
  103cb7:	68 ca 3c 11 00       	push   $0x113cca
  103cbc:	56                   	push   %esi
  103cbd:	e8 ce dc ff ff       	call   101990 <strncmp>
  103cc2:	83 c4 10             	add    $0x10,%esp
  103cc5:	85 c0                	test   %eax,%eax
  103cc7:	75 2c                	jne    103cf5 <execute+0xe55>
  103cc9:	52                   	push   %edx
  103cca:	83 c6 06             	add    $0x6,%esi
  103ccd:	52                   	push   %edx
  103cce:	8d 5c 24 18          	lea    0x18(%esp),%ebx
  103cd2:	53                   	push   %ebx
  103cd3:	56                   	push   %esi
  103cd4:	e8 f7 78 00 00       	call   10b5d0 <fs_read_file>
  103cd9:	83 c4 10             	add    $0x10,%esp
  103cdc:	85 c0                	test   %eax,%eax
  103cde:	75 55                	jne    103d35 <execute+0xe95>
  103ce0:	50                   	push   %eax
  103ce1:	50                   	push   %eax
  103ce2:	53                   	push   %ebx
  103ce3:	68 ec 39 11 00       	push   $0x1139ec
  103ce8:	e8 23 c9 ff ff       	call   100610 <terminal_printf>
  103ced:	83 c4 10             	add    $0x10,%esp
  103cf0:	e9 de f1 ff ff       	jmp    102ed3 <execute+0x33>
  103cf5:	50                   	push   %eax
  103cf6:	6a 07                	push   $0x7
  103cf8:	68 e4 3c 11 00       	push   $0x113ce4
  103cfd:	56                   	push   %esi
  103cfe:	e8 8d dc ff ff       	call   101990 <strncmp>
  103d03:	83 c4 10             	add    $0x10,%esp
  103d06:	85 c0                	test   %eax,%eax
  103d08:	75 71                	jne    103d7b <execute+0xedb>
  103d0a:	8d 5c 24 10          	lea    0x10(%esp),%ebx
  103d0e:	b9 04 00 00 00       	mov    $0x4,%ecx
  103d13:	83 c6 07             	add    $0x7,%esi
  103d16:	89 df                	mov    %ebx,%edi
  103d18:	f3 ab                	rep stos %eax,%es:(%edi)
  103d1a:	eb 0f                	jmp    103d2b <execute+0xe8b>
  103d1c:	83 f8 0f             	cmp    $0xf,%eax
  103d1f:	74 2c                	je     103d4d <execute+0xead>
  103d21:	83 c0 01             	add    $0x1,%eax
  103d24:	83 c6 01             	add    $0x1,%esi
  103d27:	88 54 04 0f          	mov    %dl,0xf(%esp,%eax,1)
  103d2b:	0f b6 16             	movzbl (%esi),%edx
  103d2e:	f6 c2 df             	test   $0xdf,%dl
  103d31:	75 e9                	jne    103d1c <execute+0xe7c>
  103d33:	eb 18                	jmp    103d4d <execute+0xead>
  103d35:	83 ec 0c             	sub    $0xc,%esp
  103d38:	68 d1 3c 11 00       	push   $0x113cd1
  103d3d:	e8 ce c8 ff ff       	call   100610 <terminal_printf>
  103d42:	83 c4 10             	add    $0x10,%esp
  103d45:	e9 89 f1 ff ff       	jmp    102ed3 <execute+0x33>
  103d4a:	83 c6 01             	add    $0x1,%esi
  103d4d:	80 3e 20             	cmpb   $0x20,(%esi)
  103d50:	74 f8                	je     103d4a <execute+0xeaa>
  103d52:	50                   	push   %eax
  103d53:	50                   	push   %eax
  103d54:	56                   	push   %esi
  103d55:	53                   	push   %ebx
  103d56:	e8 15 77 00 00       	call   10b470 <fs_write_file>
  103d5b:	83 c4 10             	add    $0x10,%esp
  103d5e:	85 c0                	test   %eax,%eax
  103d60:	0f 85 9a 00 00 00    	jne    103e00 <execute+0xf60>
  103d66:	50                   	push   %eax
  103d67:	50                   	push   %eax
  103d68:	53                   	push   %ebx
  103d69:	68 ec 3c 11 00       	push   $0x113cec
  103d6e:	e8 9d c8 ff ff       	call   100610 <terminal_printf>
  103d73:	83 c4 10             	add    $0x10,%esp
  103d76:	e9 58 f1 ff ff       	jmp    102ed3 <execute+0x33>
  103d7b:	50                   	push   %eax
  103d7c:	50                   	push   %eax
  103d7d:	68 1c 3d 11 00       	push   $0x113d1c
  103d82:	56                   	push   %esi
  103d83:	e8 c8 db ff ff       	call   101950 <strcmp>
  103d88:	83 c4 10             	add    $0x10,%esp
  103d8b:	85 c0                	test   %eax,%eax
  103d8d:	75 1a                	jne    103da9 <execute+0xf09>
  103d8f:	e8 2c 76 00 00       	call   10b3c0 <fs_format>
  103d94:	83 ec 0c             	sub    $0xc,%esp
  103d97:	68 20 4b 11 00       	push   $0x114b20
  103d9c:	e8 6f c8 ff ff       	call   100610 <terminal_printf>
  103da1:	83 c4 10             	add    $0x10,%esp
  103da4:	e9 2a f1 ff ff       	jmp    102ed3 <execute+0x33>
  103da9:	55                   	push   %ebp
  103daa:	6a 05                	push   $0x5
  103dac:	68 25 3d 11 00       	push   $0x113d25
  103db1:	56                   	push   %esi
  103db2:	e8 d9 db ff ff       	call   101990 <strncmp>
  103db7:	83 c4 10             	add    $0x10,%esp
  103dba:	85 c0                	test   %eax,%eax
  103dbc:	75 57                	jne    103e15 <execute+0xf75>
  103dbe:	83 c6 05             	add    $0x5,%esi
  103dc1:	50                   	push   %eax
  103dc2:	6a 0a                	push   $0xa
  103dc4:	6a 00                	push   $0x0
  103dc6:	56                   	push   %esi
  103dc7:	e8 b4 dd ff ff       	call   101b80 <strtol>
  103dcc:	5a                   	pop    %edx
  103dcd:	59                   	pop    %ecx
  103dce:	68 c8 00 00 00       	push   $0xc8
  103dd3:	89 c3                	mov    %eax,%ebx
  103dd5:	8d 40 ec             	lea    -0x14(%eax),%eax
  103dd8:	3d 0d 4e 00 00       	cmp    $0x4e0d,%eax
  103ddd:	b8 e8 03 00 00       	mov    $0x3e8,%eax
  103de2:	0f 43 d8             	cmovae %eax,%ebx
  103de5:	53                   	push   %ebx
  103de6:	e8 45 87 00 00       	call   10c530 <speaker_beep>
  103deb:	5e                   	pop    %esi
  103dec:	5f                   	pop    %edi
  103ded:	53                   	push   %ebx
  103dee:	68 2b 3d 11 00       	push   $0x113d2b
  103df3:	e8 18 c8 ff ff       	call   100610 <terminal_printf>
  103df8:	83 c4 10             	add    $0x10,%esp
  103dfb:	e9 d3 f0 ff ff       	jmp    102ed3 <execute+0x33>
  103e00:	83 ec 0c             	sub    $0xc,%esp
  103e03:	68 02 3d 11 00       	push   $0x113d02
  103e08:	e8 03 c8 ff ff       	call   100610 <terminal_printf>
  103e0d:	83 c4 10             	add    $0x10,%esp
  103e10:	e9 be f0 ff ff       	jmp    102ed3 <execute+0x33>
  103e15:	50                   	push   %eax
  103e16:	50                   	push   %eax
  103e17:	68 3d 3d 11 00       	push   $0x113d3d
  103e1c:	56                   	push   %esi
  103e1d:	e8 2e db ff ff       	call   101950 <strcmp>
  103e22:	83 c4 10             	add    $0x10,%esp
  103e25:	89 c7                	mov    %eax,%edi
  103e27:	85 c0                	test   %eax,%eax
  103e29:	75 32                	jne    103e5d <execute+0xfbd>
  103e2b:	50                   	push   %eax
  103e2c:	50                   	push   %eax
  103e2d:	6a 40                	push   $0x40
  103e2f:	8d 5c 24 1c          	lea    0x1c(%esp),%ebx
  103e33:	53                   	push   %ebx
  103e34:	e8 37 7b 00 00       	call   10b970 <fat16_list_files>
  103e39:	83 c4 10             	add    $0x10,%esp
  103e3c:	89 c6                	mov    %eax,%esi
  103e3e:	85 c0                	test   %eax,%eax
  103e40:	0f 88 de 00 00 00    	js     103f24 <execute+0x1084>
  103e46:	75 6e                	jne    103eb6 <execute+0x1016>
  103e48:	83 ec 0c             	sub    $0xc,%esp
  103e4b:	68 58 3d 11 00       	push   $0x113d58
  103e50:	e8 1b c5 ff ff       	call   100370 <terminal_writestring>
  103e55:	83 c4 10             	add    $0x10,%esp
  103e58:	e9 76 f0 ff ff       	jmp    102ed3 <execute+0x33>
  103e5d:	57                   	push   %edi
  103e5e:	6a 09                	push   $0x9
  103e60:	68 a9 3d 11 00       	push   $0x113da9
  103e65:	56                   	push   %esi
  103e66:	e8 25 db ff ff       	call   101990 <strncmp>
  103e6b:	83 c4 10             	add    $0x10,%esp
  103e6e:	85 c0                	test   %eax,%eax
  103e70:	0f 85 d8 00 00 00    	jne    103f4e <execute+0x10ae>
  103e76:	83 c6 09             	add    $0x9,%esi
  103e79:	53                   	push   %ebx
  103e7a:	68 00 20 00 00       	push   $0x2000
  103e7f:	68 00 fd 13 00       	push   $0x13fd00
  103e84:	56                   	push   %esi
  103e85:	e8 76 7c 00 00       	call   10bb00 <fat16_read_file>
  103e8a:	83 c4 10             	add    $0x10,%esp
  103e8d:	85 c0                	test   %eax,%eax
  103e8f:	0f 88 a4 00 00 00    	js     103f39 <execute+0x1099>
  103e95:	83 ec 0c             	sub    $0xc,%esp
  103e98:	68 00 fd 13 00       	push   $0x13fd00
  103e9d:	e8 ce c4 ff ff       	call   100370 <terminal_writestring>
  103ea2:	c7 04 24 0a 00 00 00 	movl   $0xa,(%esp)
  103ea9:	e8 22 c3 ff ff       	call   1001d0 <terminal_putchar>
  103eae:	83 c4 10             	add    $0x10,%esp
  103eb1:	e9 1d f0 ff ff       	jmp    102ed3 <execute+0x33>
  103eb6:	83 ec 0c             	sub    $0xc,%esp
  103eb9:	6a 0b                	push   $0xb
  103ebb:	e8 00 c3 ff ff       	call   1001c0 <terminal_setcolor>
  103ec0:	c7 04 24 6e 3d 11 00 	movl   $0x113d6e,(%esp)
  103ec7:	e8 a4 c4 ff ff       	call   100370 <terminal_writestring>
  103ecc:	c7 04 24 08 00 00 00 	movl   $0x8,(%esp)
  103ed3:	e8 e8 c2 ff ff       	call   1001c0 <terminal_setcolor>
  103ed8:	c7 04 24 40 4b 11 00 	movl   $0x114b40,(%esp)
  103edf:	e8 8c c4 ff ff       	call   100370 <terminal_writestring>
  103ee4:	c7 04 24 07 00 00 00 	movl   $0x7,(%esp)
  103eeb:	e8 d0 c2 ff ff       	call   1001c0 <terminal_setcolor>
  103ef0:	83 c4 10             	add    $0x10,%esp
  103ef3:	50                   	push   %eax
  103ef4:	83 c7 01             	add    $0x1,%edi
  103ef7:	ff 73 10             	push   0x10(%ebx)
  103efa:	53                   	push   %ebx
  103efb:	83 c3 14             	add    $0x14,%ebx
  103efe:	68 88 3d 11 00       	push   $0x113d88
  103f03:	e8 08 c7 ff ff       	call   100610 <terminal_printf>
  103f08:	83 c4 10             	add    $0x10,%esp
  103f0b:	39 fe                	cmp    %edi,%esi
  103f0d:	7f e4                	jg     103ef3 <execute+0x1053>
  103f0f:	55                   	push   %ebp
  103f10:	55                   	push   %ebp
  103f11:	56                   	push   %esi
  103f12:	68 9a 3d 11 00       	push   $0x113d9a
  103f17:	e8 f4 c6 ff ff       	call   100610 <terminal_printf>
  103f1c:	83 c4 10             	add    $0x10,%esp
  103f1f:	e9 af ef ff ff       	jmp    102ed3 <execute+0x33>
  103f24:	83 ec 0c             	sub    $0xc,%esp
  103f27:	68 44 3d 11 00       	push   $0x113d44
  103f2c:	e8 3f c4 ff ff       	call   100370 <terminal_writestring>
  103f31:	83 c4 10             	add    $0x10,%esp
  103f34:	e9 9a ef ff ff       	jmp    102ed3 <execute+0x33>
  103f39:	83 ec 0c             	sub    $0xc,%esp
  103f3c:	68 d1 3c 11 00       	push   $0x113cd1
  103f41:	e8 2a c4 ff ff       	call   100370 <terminal_writestring>
  103f46:	83 c4 10             	add    $0x10,%esp
  103f49:	e9 85 ef ff ff       	jmp    102ed3 <execute+0x33>
  103f4e:	51                   	push   %ecx
  103f4f:	6a 0a                	push   $0xa
  103f51:	68 b3 3d 11 00       	push   $0x113db3
  103f56:	56                   	push   %esi
  103f57:	e8 34 da ff ff       	call   101990 <strncmp>
  103f5c:	83 c4 10             	add    $0x10,%esp
  103f5f:	85 c0                	test   %eax,%eax
  103f61:	75 29                	jne    103f8c <execute+0x10ec>
  103f63:	8d 5c 24 10          	lea    0x10(%esp),%ebx
  103f67:	b9 04 00 00 00       	mov    $0x4,%ecx
  103f6c:	83 c6 0a             	add    $0xa,%esi
  103f6f:	89 df                	mov    %ebx,%edi
  103f71:	f3 ab                	rep stos %eax,%es:(%edi)
  103f73:	0f b6 16             	movzbl (%esi),%edx
